(dp0
(S'hfe'
p1
S'lung diseases'
p2
tp3
(lp4
I20575041
aI12850493
aI16105133
as(S'ncf2'
p5
S'glioblastoma'
p6
tp7
(lp8
I19423540
as(S'chrna7'
p9
S'death, sudden, cardiac'
p10
tp11
(lp12
I11455129
aI11455129
aI12214130
aI18696274
aI18057084
aI18078695
as(S'crh'
p13
S'cortisol'
p14
tp15
(lp16
I11555839
as(S'chuk'
p17
S'liver enzymes'
p18
tp19
(lp20
I18940312
as(S'apob'
p21
S'beta-thalassemia'
p22
tp23
(lp24
I16030169
as(S'defa5'
p25
S'brain neoplasms'
p26
tp27
(lp28
I20406964
as(S'igfbp1'
p29
S'ovarian cancer'
p30
tp31
(lp32
I16404426
aI18596909
aI19455605
aI19843326
aI19858071
aI20484221
as(S'cyp1a1'
p33
S'mammographic density'
p34
tp35
(lp36
I12602902
aI15382051
aI19630952
as(S'ldlr'
p37
S'familial hypercholesterolemia'
p38
tp39
(lp40
I11857755
aI12055704
aI1978630
as(S'il1r1'
p41
S'rheumatoid arthritis'
p42
tp43
(lp44
I17622942
as(S'erbb2'
p45
S'copd'
p46
tp47
(lp48
I19625176
as(S'igf1'
p49
S'cytosine-adenosine repeat polymorphism of igf-i gene'
p50
tp51
(lp52
I11895885
as(S'sh2b3'
p53
S'hypertension'
p54
tp55
(lp56
I19430479
as(S'drd1'
p57
S'memory'
p58
tp59
(lp60
I17310237
as(S'il6'
p61
S'diabetes mellitus, type 2'
p62
tp63
(lp64
I18469018
aI18496509
aI18752089
aI19784523
aI14997289
aI16005243
aI18311435
as(S'adra2c'
p65
S'blood pressure, arterial epinephrine heart rate norepinephrine sympathetic activity'
p66
tp67
(lp68
I17351367
as(S'p4ha2'
p69
S'iron deficiency anaemia'
p70
tp71
(lp72
I17213842
as(S'xrcc1'
p73
S'pterygium'
p74
tp75
(lp76
I20431719
aI20577654
as(S'slc6a4'
p77
S'serotonergic function'
p78
tp79
(lp80
I15041087
as(S'gclm'
p81
S'2-thiothiazolidine-4-carboxylic acid levels'
p82
tp83
(lp84
I17333241
as(S'sca22'
p85
S'spinocerebellar ataxia'
p86
tp87
(lp88
I15148151
as(S'itga2b'
p89
S'death, sudden, cardiac'
p90
tp91
(lp92
I11719362
as(S'rad51'
p93
S'brain cancer'
p94
tp95
(lp96
I15313891
as(S'tnfsf13'
p97
S'blood proteins'
p98
tp99
(lp100
I22558069
as(S'drd2'
p101
S'alcohol-use disorders'
p102
tp103
(lp104
I8886168
as(S'htr2c'
p105
S'type 2 diabetes'
p106
tp107
(lp108
I18192901
as(S'bcas1'
p109
g30
tp110
(lp111
I15583422
as(S'kir2ds2'
p112
S'arthritis, rheumatoid'
p113
tp114
(lp115
I17882223
as(S'slc22a4'
p116
S'hiv infections'
p117
tp118
(lp119
I20485362
as(S'cr1'
p120
S'lupus nephritis'
p121
tp122
(lp123
I2575471
aI2573360
aI1352746
aI9161700
aI8706338
aI2721176
aI2881967
aI2958190
as(S'rb1'
p124
S'hemangioblastoma'
p125
tp126
(lp127
I15763650
aI11568901
aI14722923
aI15162822
aI14631100
aI16127685
aI16269091
aI16595082
as(S'il1a'
p128
S'lupus erythematosus, cutaneous'
p129
tp130
(lp131
I19035492
as(S'gstm3'
p132
S'glioblastoma'
p133
tp134
(lp135
I15914277
as(S'bcl7b'
p136
S'gamma-glutamyltransferase'
p137
tp138
(lp139
I21909109
as(S'apoa5'
p140
S'diabetes, type 2 lipids triglycerides'
p141
tp142
(lp143
I17197160
as(S'apoe'
p144
S'glucosephosphate dehydrogenase deficiency'
p145
tp146
(lp147
I16882462
as(S'hnmt'
p148
S'hiv infections'
p149
tp150
(lp151
I19178400
as(S'cx3cr1'
p152
S'coronary vascular endothelial dysfunction'
p153
tp154
(lp155
I11532900
as(S'tpmt'
p156
S'leuopenia, thiopurine-related'
p157
tp158
(lp159
I17164697
as(S'esr1'
p160
S'obesity, morbid'
p161
tp162
(lp163
I19491387
as(S'pcsk9'
p164
S'heart disease, ischemic hypercholesterolemia'
p165
tp166
(lp167
I17142622
as(S'lta'
p168
S'diabetes, type 2'
p169
tp170
(lp171
I11250044
aI12559634
aI1361076
aI1996407
aI9174153
aI8093442
aI7783649
aI11399938
aI9174153
aI18806884
aI18987644
aI19120272
aI19167443
aI19479237
as(S'pvrl2'
p172
S'hypodontia'
p173
tp174
(lp175
I20572854
aI20672350
as(S'bckdhb'
p176
S'maple syrup urine disease'
p177
tp178
(lp179
I11509994
as(S'itga2b'
p180
S'goiter'
p181
tp182
(lp183
I19132198
as(S'ccl5'
p184
S'hiv leukoencephalopathy'
p185
tp186
(lp187
I17560067
as(S'slco1b1'
p188
S'pravastatin'
p189
tp190
(lp191
I19776292
as(S'mthfr'
p192
S'suicide'
p193
tp194
(lp195
I18513846
aI18983889
as(S'col9a2'
p196
S'lumbar disk disease'
p197
tp198
(lp199
I11308397
as(S'ar'
p200
S'metabolic traits'
p201
tp202
(lp203
I19060910
as(S'ptprc'
p204
S'efavirenz mid-dose concentration'
p205
tp206
(lp207
I16999868
as(S'cxadr'
p208
S'autoimmune diseases'
p209
tp210
(lp211
I19100061
as(S'hla-a'
p212
S'hyperhomocysteinemia'
p213
tp214
(lp215
I17629023
as(S'ccl22'
p216
S'rheumatoid arthritis'
p217
tp218
(lp219
I17967467
as(S'mx1'
p220
S'bacterial infections'
p221
tp222
(lp223
I12447867
aI16792864
aI17845304
as(S'hla-drb1'
p224
S'cardiomyopathy'
p225
tp226
(lp227
I12820921
aI12905660
aI12362498
aI17060025
as(S'fanca'
p228
S'adenocarcinoma'
p229
tp230
(lp231
I19690177
as(S'lif'
p232
S'cleft lip with cleft palate'
p233
tp234
(lp235
I11587067
as(S'peo1'
p236
S"ophthalmoplegia parkinson's disease"
p237
tp238
(lp239
I17420318
as(S'hnmt'
p240
g217
tp241
(lp242
I19538200
as(S'idh1'
p243
S'astrocytoma'
p244
tp245
(lp246
I19246647
aI19755387
aI19933982
aI20131059
as(S'hla'
p247
S'host defense and inflammatory outcomes'
p248
tp249
(lp250
I12393699
as(S'il4r'
p251
S'brain cancer ige'
p252
tp253
(lp254
I17548690
as(S'c1d'
p255
g26
tp256
(lp257
I20406964
as(S'cdc123'
p258
S'diabetes mellitus, type 2'
p259
tp260
(lp261
I19247373
aI18372903
as(S'ggh'
p262
S'ulcerative colitis'
p263
tp264
(lp265
I16141796
as(S'drd2'
p266
S'opium abuse'
p267
tp268
(lp269
I15270299
as(S'hla-drb1'
p270
S'hla-dr2 specificity'
p271
tp272
(lp273
I11250046
as(S'il1rn'
p274
S'esophageal cancer'
p275
tp276
(lp277
I18396210
as(S'tlr4'
p278
S'arthritis spondyloarthropathies'
p279
tp280
(lp281
I16567359
as(S'c12orf51'
p282
S'aspartate aminotransferases'
p283
tp284
(lp285
I21909109
as(S'trdmt1'
p286
S'healthy oldest-old'
p287
tp288
(lp289
I19680556
as(S'il1rn'
p290
S'dyslexia'
p291
tp292
(lp293
I18464913
aI18632425
aI19408823
aI19594368
as(S'apoe'
p294
S'obstructive sleep apnea'
p295
tp296
(lp297
I19928390
as(S'ins'
p298
S'longevity'
p299
tp300
(lp301
I11672987
aI19367319
as(S'ptger4'
p302
S'asthma asthma, aspirin-intolerant'
p303
tp304
(lp305
I17496729
as(S'gnb3'
p306
S'gastroenteritis'
p307
tp308
(lp309
I20337945
as(S'abca4'
p310
S'age-related maculopathy.'
p311
tp312
(lp313
I12824224
as(S'fam71f1'
p314
S'hypertension'
p315
tp316
(lp317
I18317470
as(S'cyp3a4'
p318
S'cholesterol, ldl'
p319
tp320
(lp321
I12446983
aI12202670
aI15931768
aI16130011
as(S'spred2'
p322
S'facies'
p323
tp324
(lp325
I19443465
as(S'hoxd13'
p326
S'talipes equinovarus'
p327
tp328
(lp329
I16331564
as(S'cfh'
p330
S'atherosclerosis'
p331
tp332
(lp333
I18538409
aI19076828
aI18248681
as(S'kl'
p334
S'blood pressure, arterial body mass glucose insulin lipids'
p335
tp336
(lp337
I16957409
as(S'lipc'
p338
S'insulin'
p339
tp340
(lp341
I16077949
aI15156410
as(S'il2'
p342
S'heart transplant complications'
p343
tp344
(lp345
I12727483
as(S'il6'
p346
S'kidney transplant'
p347
tp348
(lp349
I15814282
aI15599305
aI15848524
aI15194285
aI15200452
as(S'il2rb'
p350
S'hepatitis c'
p351
tp352
(lp353
I15063762
as(S'freq'
p354
S'smoking behavior'
p355
tp356
(lp357
I16402081
as(S'ace'
p358
S'chronic kidney insufficiency'
p359
tp360
(lp361
I18698212
aI19112833
aI17969487
as(S'hla-a'
p362
S'multiple sclerosis, chronic progressive'
p363
tp364
(lp365
I15613143
aI19349081
as(S'tcf2'
p366
S'renal disease, end stage'
p367
tp368
(lp369
I11206404
as(S'mc4r'
p370
g323
tp371
(lp372
I18461507
as(S'nlrp11'
p373
g217
tp374
(lp375
I20403135
as(S'aldh2'
p376
S'blood pressure, arterial'
p377
tp378
(lp379
I12545748
aI16365683
aI11864460
as(S'sumo4'
p380
S'kidney diseases'
p381
tp382
(lp383
I17229939
as(S'mmp9'
p384
S'aortic stiffness hypertension'
p385
tp386
(lp387
I17581602
as(S'mif'
p388
g117
tp389
(lp390
I17559578
as(S'tpmt'
p391
S'kidney transplant complications'
p392
tp393
(lp394
I15476481
as(S'prep'
p395
S'diabetes, type 2'
p396
tp397
(lp398
I19795399
as(S'qdpr'
p399
g193
tp400
(lp401
I18444252
as(S'sele'
p402
S'triglycerides'
p403
tp404
(lp405
I11341749
aI16080806
aI17903299
as(S'rfx6'
p406
S'carcinoma'
p407
tp408
(lp409
I20676098
as(S'oprm1'
p410
S'pain intenity'
p411
tp412
(lp413
I16879459
as(S'abl1'
p414
S'neoplasms'
p415
tp416
(lp417
I20697894
as(S'cdkn2a'
p418
S'anril expression'
p419
tp420
(lp421
I20386740
as(S'serpine1'
p422
S'arterial disease, renal'
p423
tp424
(lp425
I16228848
as(S'gstt1'
p426
S'lead and mercury metabolism'
p427
tp428
(lp429
I19515364
as(S'ptch1'
p430
S'oral clefts'
p431
tp432
(lp433
I19937600
as(S'nfkb1'
p434
S'diabetes mellitus, type 2'
p435
tp436
(lp437
I19070859
aI18330586
as(S'tp53'
p438
S'b-cell lymphomas'
p439
tp440
(lp441
I18706692
as(S'mmp9'
p442
S'ovarian cancer'
p443
tp444
(lp445
I16278009
aI16061858
aI15949868
aI16456793
aI17175378
aI17208328
aI17546628
aI15609121
aI17033924
aI18398039
aI18506186
aI19303106
aI19643940
aI19814619
aI20354277
aI17729419
aI18006768
as(S'gabrb2'
p446
S'event-related prefrontal activity'
p447
tp448
(lp449
I11140951
as(S'xrcc1'
p450
S'leukemia, childhood acute lymphoblastic'
p451
tp452
(lp453
I11895912
as(S'mica'
p454
S'geographic atrophy'
p455
tp456
(lp457
I12854159
as(S'abcc6'
p458
S'amyotrophic lateral sclerosis'
p459
tp460
(lp461
I20541540
as(S'ret'
p462
S'multiple endocrine neoplasia type 2b'
p463
tp464
(lp465
I18258924
as(S'plekha1'
p466
S'macular degeneration, age-related'
p467
tp468
(lp469
I16174643
as(S'adam17'
p470
S'arthritis, rheumatoid'
p471
tp472
(lp473
I20300049
as(S'mmp2'
p474
S'aortic aneurysm, abdominal'
p475
tp476
(lp477
I17182940
aI19515587
as(S'abcb1'
p478
g291
tp479
(lp480
I12848778
aI18979093
as(S'slc11a1'
p481
S'hypertension, pulmonary'
p482
tp483
(lp484
I18504650
as(S'tnf'
p485
S'community-acquired pneumonia (cap)'
p486
tp487
(lp488
I10782394
aI11401880
aI8625623
as(S'taf1'
p489
S'atherosclerosis, coronary'
p490
tp491
(lp492
I15978108
aI15306156
as(S'il1rn'
p493
S'alcohol'
p494
tp495
(lp496
I19764937
as(S'fkbp5'
p497
g193
tp498
(lp499
I18180755
as(S'stat2'
p500
S'hepatitis c, chronic'
p501
tp502
(lp503
I19200137
aI18338947
as(S'nat2'
p504
S'leukemia, myelomonocytic, chronic'
p505
tp506
(lp507
I19751749
as(S'gstm1'
p508
S'pancreatic diseases'
p509
tp510
(lp511
I17265526
as(S'f2'
p512
S'budd-chiari syndrome liver transplant portal vein thrombosis'
p513
tp514
(lp515
I17100732
as(S'drp2'
p516
g193
tp517
(lp518
I12951196
aI12951196
as(S'vwf'
p519
S'reduced levels of von willebrand factor messenger rna'
p520
tp521
(lp522
I1448779
as(S'il6'
p523
S'alpha 1-antitrypsin deficiency'
p524
tp525
(lp526
I12754410
aI15686588
as(S'cyp2e1'
p527
S'hodgkin disease'
p528
tp529
(lp530
I12397416
aI11191882
as(S'sele'
p531
S'cardiovascular disease'
p532
tp533
(lp534
I11097335
aI16544732
as(S'f2'
p535
S'restenosis'
p536
tp537
(lp538
I12082592
as(S'mgmt'
p539
S'glioblastoma'
p540
tp541
(lp542
I19100509
aI20206583
as(S'fcgr2a'
p543
g121
tp544
(lp545
I11561111
aI14641546
aI12643213
aI12115230
as(S'abcb1'
p546
S'liver cancer'
p547
tp548
(lp549
I17443726
as(S'mertk'
p550
S'lupus erythematosus'
p551
tp552
(lp553
I16837475
as(S'mt-nd2'
p554
S'hemoglobin levels'
p555
tp556
(lp557
I15888325
as(S'th'
p558
S'brain hemorrhage'
p559
tp560
(lp561
I15735319
as(S'tp73'
p562
S'leukoplakia'
p563
tp564
(lp565
I19204927
as(S'abcb1'
p566
S'nelfinavir pharmacokinetics'
p567
tp568
(lp569
I16041239
as(S'litaf'
p570
S'type 2 diabetes'
p571
tp572
(lp573
I19305408
aI19305409
as(S'atp13a2'
p574
S"parkinson's disease"
p575
tp576
(lp577
I17485642
aI19085912
aI19015489
aI19806583
aI19705361
aI19224617
aI19097176
aI20137506
aI20036179
aI20483373
aI20227461
as(S'hla-dpb1'
p578
S'acute lymphocytic leukemia'
p579
tp580
(lp581
I12844410
aI17317585
aI16234356
as(S'slc6a4'
p582
S'autonomic nervous system diseases'
p583
tp584
(lp585
I19067809
aI19408837
aI20129829
as(S'bdnf'
p586
S'personality traits'
p587
tp588
(lp589
I15918078
aI17392738
as(S'hla-drb1'
p590
S'deafness'
p591
tp592
(lp593
I18352820
aI18449200
aI18694972
aI19143814
aI19458622
aI18004301
aI19578600
aI20073143
aI20101097
aI20140847
aI20170930
aI20221424
aI20510319
aI20569042
aI20561992
aI20595243
aI20603341
aI20686866
aI20798335
aI20966625
aI20858521
aI21033293
aI11146462
aI11263477
aI11841488
aI11860796
aI12694583
aI14745491
aI15029234
aI15057268
aI15219383
aI15849775
aI17284224
aI17661909
aI17941906
aI17956579
aI17971177
aI17987563
aI18065518
aI18252895
aI18259107
aI18279373
aI18292987
aI18332098
as(S'hla-drb1'
p594
S'thrombosis, deep vein'
p595
tp596
(lp597
I15640334
as(S'abcg2'
p598
S'epilepsy, generalized'
p599
tp600
(lp601
I19167193
as(S'tgfa'
p602
S'cleft lip with cleft palate cleft lip without cleft palate cleft palate'
p603
tp604
(lp605
I17272867
aI16953426
as(S'slc26a5'
p606
S'syndrome'
p607
tp608
(lp609
I16086836
aI19027966
as(S'serpina3'
p610
S'ischemia'
p611
tp612
(lp613
I15935385
as(S'il15'
p614
S'hypertension'
p615
tp616
(lp617
I20622171
aI21049047
aI19176441
as(S'nd5'
p618
S'blindness'
p619
tp620
(lp621
I19026397
as(S'itga2b'
p622
S'blood transfusion complications'
p623
tp624
(lp625
I14675395
as(S'slc11a1'
p626
S'anemia, iron-deficiency'
p627
tp628
(lp629
I17466092
as(S'cyp3a4'
p630
S'menarche'
p631
tp632
(lp633
I11749050
as(S'kcnh2'
p634
S'death, sudden, cardiac'
p635
tp636
(lp637
I19019189
aI20400777
aI17239714
as(S'apoa5'
p638
S'diabetes, type 2'
p639
tp640
(lp641
I19107359
as(S'egfr'
p642
S'urinary calculus'
p643
tp644
(lp645
I12719950
as(S'mlh1'
p646
S'esophageal cancer'
p647
tp648
(lp649
I15769334
as(S'rbp1'
p650
S'retinal dystrophies'
p651
tp652
(lp653
I21067480
as(S'apoe'
p654
S'hypertriglyceridemia'
p655
tp656
(lp657
I12220441
aI11055796
aI11984219
aI11412677
aI11593554
aI11218879
aI16630553
aI18549811
aI18596051
aI18645733
aI19094657
aI20429872
aI11295126
aI16433808
aI16916989
aI18241317
as(S'cxcl12'
p658
S'stromal derived factor'
p659
tp660
(lp661
I17240189
as(S'nrp1'
p662
S'breast neoplasms'
p663
tp664
(lp665
I18785001
as(S'cdkn1c'
p666
S'atherosclerosis, generalized myocardial infarct'
p667
tp668
(lp669
I17351341
as(S'tcn2'
p670
g10
tp671
(lp672
I14739547
as(S'clcn5'
p673
S'urinary calculus'
p674
tp675
(lp676
I15692680
as(S'mmel1-tnfrsf14'
p677
S'rheumatoid arthritis'
p678
tp679
(lp680
I18794853
as(S'slc22a5'
p681
g655
tp682
(lp683
I15647998
as(S'znf189'
p684
g173
tp685
(lp686
I20634891
as(S'trmu'
p687
g181
tp688
(lp689
I19338775
as(S'nras'
p690
S'carcinoma, transitional cell'
p691
tp692
(lp693
I19303097
as(S'nos1'
p694
S'several psychiatric disorders'
p695
tp696
(lp697
I19086053
as(S'cst3'
p698
S'frontotemporal lobar degeneration'
p699
tp700
(lp701
I19674067
as(S'hla'
p702
S'diabetes mellitus type i'
p703
tp704
(lp705
I7021118
as(S'cyp1a1'
p706
S'liver cancer'
p707
tp708
(lp709
I15341023
aI12569554
aI17363580
as(S'msh2'
p710
S'hepatitis c, chronic'
p711
tp712
(lp713
I17350822
as(S'il2'
p714
S'arthritis, juvenile rheumatoid'
p715
tp716
(lp717
I20072139
as(S'sca21'
p718
S'spinocerebellar ataxia'
p719
tp720
(lp721
I15148151
as(S'itgb5'
p722
S'ovarian cancer'
p723
tp724
(lp725
I18550570
as(S'ctla4'
p726
g711
tp727
(lp728
I19778566
aI20538028
as(S'dap'
p729
S'abnormalities, multiple'
p730
tp731
(lp732
I21297633
as(S'egfr'
p733
S'rectal neoplasms'
p734
tp735
(lp736
I19095777
aI20504250
aI20842128
as(S'kir2dl4'
p737
S'fetal loss'
p738
tp739
(lp740
I19700612
as(S'hif1a'
p741
S'carcinoma'
p742
tp743
(lp744
I19504235
as(S'trpm7'
p745
S'type 2 diabetes'
p746
tp747
(lp748
I20875900
as(S'mchr1'
p749
S'bipolar disorder schizophrenia'
p750
tp751
(lp752
I16741940
as(S'lipc'
p753
S'lipoproteins and hdl'
p754
tp755
(lp756
I19489872
as(S'gstm1'
p757
S'dcm - dilated cardiomyopathy'
p758
tp759
(lp760
I18325667
as(S'pafah'
p761
S'asthma. atopy'
p762
tp763
(lp764
I10733466
as(S'tnf'
p765
S'acute gvhd'
p766
tp767
(lp768
I12438965
as(S'lta'
p769
S'coronary artery disease'
p770
tp771
(lp772
I18384488
aI18504081
aI18612209
aI18575614
aI19336475
aI20472930
aI15224026
aI15175864
aI15513316
aI17640627
as(S'cyp2c9'
p773
g579
tp774
(lp775
I15813658
aI15606441
aI11697742
aI19822571
as(S'timp2'
p776
g615
tp777
(lp778
I17901377
as(S'pparg'
p779
S'glucose tolerance'
p780
tp781
(lp782
I15759454
as(S'mapt'
p783
S'jakob-creutzfeldt disease'
p784
tp785
(lp786
I12212558
as(S'plat'
p787
S'stroke, lacunar'
p788
tp789
(lp790
I15031453
as(S'f2'
p791
g181
tp792
(lp793
I15869586
aI16572609
as(S'cyp2a6'
p794
g70
tp795
(lp796
I17927692
as(S'cyp2w1'
p797
g723
tp798
(lp799
I20602611
as(S'gnas'
p800
S'blood pressure, arterial'
p801
tp802
(lp803
I16210433
as(S'bf'
p804
S"parkinson's disease"
p805
tp806
(lp807
I15648851
as(S'kcnj6'
p808
S'cerebrovascular disorders'
p809
tp810
(lp811
I12458027
as(S'xrcc2'
p812
S'breast neoplasms'
p813
tp814
(lp815
I18990028
as(S'rgs6'
p816
S'adiposity'
p817
tp818
(lp819
I19461586
as(S'il1rn'
p820
S'atrial fibrillation'
p821
tp822
(lp823
I15670034
aI15171792
aI18299273
as(S'agt'
p824
S'diabetes, type 2'
p825
tp826
(lp827
I15575510
aI8587251
aI14625185
aI8772723
aI9218178
aI11717948
aI16276364
aI18413222
aI18849600
aI19327134
as(S'cd14'
p828
S"parkinson's disease"
p829
tp830
(lp831
I16337421
as(S'il18'
p832
S'hepatitis'
p833
tp834
(lp835
I12947340
aI20441695
as(S'tap1'
p836
S'nasopharyngeal cancer'
p837
tp838
(lp839
I17498556
as(S'xbp1'
p840
S'methamphetamine dependence'
p841
tp842
(lp843
I15936534
as(S'csrp3'
p844
g209
tp845
(lp846
I19293840
aI20201937
as(S'ctla4'
p847
S"ophthalmopathy, graves'"
p848
tp849
(lp850
I15507878
as(S'mapt'
p851
g579
tp852
(lp853
I19467705
as(S'p2ry1'
p854
S'clopidogrel'
p855
tp856
(lp857
I19934793
as(S'kcnj11'
p858
S'diabetes, type 2 insulin'
p859
tp860
(lp861
I17259403
as(S'ptgis'
p862
g723
tp863
(lp864
I19276290
as(S'inhba'
p865
S'polycythemia vera'
p866
tp867
(lp868
I18413775
as(S'capn10'
p869
S'hemoglobin a(1c)'
p870
tp871
(lp872
I14500039
as(S'cacna1a'
p873
S'migraine, hemiplegic'
p874
tp875
(lp876
I12056940
as(S'drd4'
p877
S'heroin abuse'
p878
tp879
(lp880
I16167465
aI11054768
aI9322237
aI10673776
aI11054768
as(S'il1b'
p881
S'common cold'
p882
tp883
(lp884
I11784248
aI17908769
as(S'slc45a2'
p885
S'hair colour'
p886
tp887
(lp888
I18806926
as(S'lrp1'
p889
S'brain infarction'
p890
tp891
(lp892
I16328515
as(S'scn2a'
p893
g809
tp894
(lp895
I17641256
aI12165424
aI19270815
aI18784617
as(S'ltc4s'
p896
S'atopy'
p897
tp898
(lp899
I16024972
as(S'gnaq'
p900
S'hashimoto disease'
p901
tp902
(lp903
I18514160
as(S'il1b'
p904
g10
tp905
(lp906
I15377701
aI15201366
aI12034804
aI12928052
aI15212826
aI12525884
aI16930778
aI18336824
aI18607773
aI18675847
aI18717723
aI18830724
aI19563289
aI19940477
aI20213229
aI20413850
aI20963558
aI11079552
aI14512722
aI14681913
aI15172100
aI15351436
aI15338333
aI16053468
aI16965825
as(S'crp'
p907
g611
tp908
(lp909
I15797975
aI16051899
as(S'pdpk1'
p910
S'adenocarcinoma, papillary'
p911
tp912
(lp913
I20186503
as(S'il18'
p914
S'asthma.'
p915
tp916
(lp917
I12911784
as(S'acat2'
p918
S'lipoproteins'
p919
tp920
(lp921
I16195894
as(S'cndp1'
p922
S'diabetic nephropathies'
p923
tp924
(lp925
I20299368
aI20851293
aI20711718
as(S'lrrk2'
p926
S'progressive supranuclear palsy'
p927
tp928
(lp929
I16102903
aI19538213
as(S'acadm'
p930
g381
tp931
(lp932
I11263545
as(S'bdnf'
p933
S'affective psychoses'
p934
tp935
(lp936
I14673216
aI16139165
as(S'cyp3a4'
p937
g291
tp938
(lp939
I18979093
as(S'fanca'
p940
S'bladder cancer'
p941
tp942
(lp943
I19237606
aI19692168
as(S'casp9'
p944
S'diabetes, type 2'
p945
tp946
(lp947
I16038259
as(S'il20'
p948
S'palmoplanta pustulosis'
p949
tp950
(lp951
I17263806
as(S'ar'
p952
S'anemia'
p953
tp954
(lp955
I20374306
as(S'ppara'
p956
S'atherosclerosis, coronary'
p957
tp958
(lp959
I15199365
aI16275545
aI15128052
aI16043164
aI14641801
aI17001213
aI17608096
as(S'tcn2'
p960
S'aortic aneurysm, abdominal'
p961
tp962
(lp963
I18635682
as(S'bat3'
p964
S'arthritis, rheumatoid'
p965
tp966
(lp967
I18835879
as(S'hla-dpb1'
p968
S'diabetes mellitus'
p969
tp970
(lp971
I1502500
as(S'hla-dqb1'
p972
S'skin diseases, genetic'
p973
tp974
(lp975
I16409268
as(S'esr1'
p976
S'cystocele'
p977
tp978
(lp979
I18385916
as(S'sdc4'
p980
S'varicose ulcer'
p981
tp982
(lp983
I18638267
as(S'tgfbr2'
p984
S'cleft lip without cleft palate'
p985
tp986
(lp987
I12202987
as(S'il13'
p988
S'serum ige levels'
p989
tp990
(lp991
I14564352
as(S'cyp3a5'
p992
S'indinavir pharmacokinetics'
p993
tp994
(lp995
I17517050
as(S'ugt1a1'
p996
S'cholesterol'
p997
tp998
(lp999
I15931768
as(S'usf1'
p1000
S'cardiovascular disease mortality, all-cause'
p1001
tp1002
(lp1003
I16699592
as(S'ryr3'
p1004
S'hypertension'
p1005
tp1006
(lp1007
I20009918
as(S'cyp2e1'
p1008
g833
tp1009
(lp1010
I15928955
aI18769766
aI20939108
as(S'nod2'
p1011
S"crohn's disease inflammatory bowel disease"
p1012
tp1013
(lp1014
I16493449
as(S'as3mt'
p1015
S'neoplasms, germ cell and embryonal'
p1016
tp1017
(lp1018
I18588996
aI19152805
aI17889916
as(S'aldh2'
p1019
S'lipid peroxide'
p1020
tp1021
(lp1022
I16365683
as(S'gstm1'
p1023
S'gastric disease'
p1024
tp1025
(lp1026
I15734972
as(S'sema3a'
p1027
S'attention deficit disorder with hyperactivity'
p1028
tp1029
(lp1030
I21784300
as(S'slc19a1'
p1031
g723
tp1032
(lp1033
I15922487
aI17311260
aI20037791
aI19841321
aI19706844
aI20651609
as(S'ppard'
p1034
S'elite runners'
p1035
tp1036
(lp1037
I20044476
as(S'abcb1'
p1038
S'sirolimus pharmacokinetics'
p1039
tp1040
(lp1041
I16249748
as(S'il6'
p1042
S'neonatal infection'
p1043
tp1044
(lp1045
I15847080
as(S'itgav'
p1046
S'arthritis, rheumatoid'
p1047
tp1048
(lp1049
I19818132
as(S'ifng'
p1050
S'arthritis, reactive'
p1051
tp1052
(lp1053
I19358670
aI18062835
as(S'ptpn11'
p1054
S'leukemia, lymphoid'
p1055
tp1056
(lp1057
I16533526
as(S'ptprb'
p1058
S'alcoholism'
p1059
tp1060
(lp1061
I18361428
as(S'mmp3'
p1062
S'liver disease, chronic'
p1063
tp1064
(lp1065
I15955221
as(S'slc6a3'
p1066
S'bulimia'
p1067
tp1068
(lp1069
I19447357
aI20468064
as(S'gstm1'
p1070
S'oral cancer'
p1071
tp1072
(lp1073
I16393248
aI14735473
aI12016153
as(S'slc19a1'
p1074
S'hypertension induced by pregnancy'
p1075
tp1076
(lp1077
I14632302
aI15799025
aI16086047
aI11857541
aI15231126
aI16471213
aI15952116
aI19161160
aI20544798
as(S'efemp1'
p1078
S'familial age-related macular degeneration'
p1079
tp1080
(lp1081
I12427233
as(S'esr1'
p1082
S'fragile x syndrome'
p1083
tp1084
(lp1085
I17706202
as(S'crebbp'
p1086
g758
tp1087
(lp1088
I17460549
as(S'ddah1'
p1089
S'preeclampsia'
p1090
tp1091
(lp1092
I15501905
as(S'cx3cr1'
p1093
S'hiv infection'
p1094
tp1095
(lp1096
I11391174
as(S'pdgfb'
p1097
S'amyotrophic lateral sclerosis'
p1098
tp1099
(lp1100
I18608101
as(S'edn1'
p1101
S'total ige. eosinophilia. drs'
p1102
tp1103
(lp1104
I11668616
as(S'sod3'
p1105
S'neuropathy, diabetic'
p1106
tp1107
(lp1108
I11299047
as(S'cyp1b1'
p1109
S'menopause'
p1110
tp1111
(lp1112
I15774541
aI11854439
aI16977255
as(S'lrp5'
p1113
S'fracture risk'
p1114
tp1115
(lp1116
I16355283
as(S'cma1'
p1117
S'connective tissue diseases'
p1118
tp1119
(lp1120
I19332265
as(S'gstm1'
p1121
S'human longevity'
p1122
tp1123
(lp1124
I9654200
as(S'ephx1'
p1125
S'acrylamide'
p1126
tp1127
(lp1128
I19131562
as(S'ace'
p1129
S'hepatopulmonary syndrome'
p1130
tp1131
(lp1132
I20346360
as(S'mtr'
p1133
S'hyperhomocysteinemia'
p1134
tp1135
(lp1136
I18427977
aI18498768
aI19263808
aI15866085
aI18249021
as(S'ptprj'
p1137
S'carcinoma, papillary'
p1138
tp1139
(lp1140
I20823296
as(S'cyp17'
p1141
g723
tp1142
(lp1143
I12584742
as(S'cav1'
p1144
S'blood pressure, arterial hypertension'
p1145
tp1146
(lp1147
I17334644
as(S'tnfrsf1b'
p1148
g315
tp1149
(lp1150
I10841005
aI12161545
aI16003175
aI18685868
aI19557004
aI17634906
aI16980123
as(S'hla'
p1151
S'prepubertal male pseudohermaphroditism'
p1152
tp1153
(lp1154
I3166023
as(S'pon1'
p1155
S'hypolipoproteinemias'
p1156
tp1157
(lp1158
I15995178
aI15853770
aI16094856
as(S'hnf1a'
p1159
g217
tp1160
(lp1161
I12488961
as(S'lrpap1'
p1162
g10
tp1163
(lp1164
I11425005
aI12394648
aI11425005
aI16650578
as(S'gstm1'
p1165
S'leukemia/lymphoma, t-cell'
p1166
tp1167
(lp1168
I11325850
as(S'hhip'
p1169
S'lung diseases'
p1170
tp1171
(lp1172
I20010835
as(S'enpp1'
p1173
S'ossification of the posterior longitudinal ligament of the spine (opll)'
p1174
tp1175
(lp1176
I10453738
as(S'tgfb3'
p1177
g1075
tp1178
(lp1179
I19628198
as(S'mthfr'
p1180
S'coronary artery disease, occlusive'
p1181
tp1182
(lp1183
I11672761
as(S'plin'
p1184
g10
tp1185
(lp1186
I19782423
as(S'mmp1'
p1187
S'micronuclei, chromosome-defective'
p1188
tp1189
(lp1190
I15879464
as(S'cyp1a1'
p1191
S'intrauterine growth'
p1192
tp1193
(lp1194
I14665706
as(S'ppargc1a'
p1195
S'insulin'
p1196
tp1197
(lp1198
I15649578
aI15912394
as(S'htr2a'
p1199
S'anxiety disorder'
p1200
tp1201
(lp1202
I11444684
aI15313842
as(S'il4r'
p1203
S'atopic dermatitis'
p1204
tp1205
(lp1206
I10550754
as(S'cyp2c9'
p1207
S'cardiovascular disease'
p1208
tp1209
(lp1210
I12724615
as(S'rnasel'
p1211
g30
tp1212
(lp1213
I15824169
aI15714208
aI15534086
aI11941539
aI12145743
aI15330212
aI12624151
aI12915880
aI16537704
aI17020975
aI17407163
aI18575592
aI18566991
aI18436282
aI18767027
aI19267370
aI19961052
aI19760027
aI19567509
aI20564318
aI20086112
aI20576793
aI18189233
aI17908993
as(S'alad'
p1214
S'lead and mercury metabolism'
p1215
tp1216
(lp1217
I19515364
as(S'fto'
p1218
S'atherosclerosis'
p1219
tp1220
(lp1221
I18550552
aI20142250
aI21105276
as(S'mmp3'
p1222
S'myocardial infarct'
p1223
tp1224
(lp1225
I16238676
aI15467919
aI12821236
aI15823277
aI12876636
as(S'il4'
p1226
S"graves' disease"
p1227
tp1228
(lp1229
I16195814
as(S'ctla4'
p1230
S'type 1 autoimmune hepatitis'
p1231
tp1232
(lp1233
I18371160
as(S'hla-dqb1'
p1234
S'hypertension, pulmonary arterial'
p1235
tp1236
(lp1237
I17406941
as(S'cyp2c19'
p1238
g505
tp1239
(lp1240
I19193970
aI19638460
aI21108329
as(S'drd2'
p1241
g1188
tp1242
(lp1243
I19176223
as(S'rnd3'
p1244
S'diabetes mellitus, type 2'
p1245
tp1246
(lp1247
I22238593
as(S'mttp'
p1248
S'apob-48'
p1249
tp1250
(lp1251
I11834530
as(S'tyr'
p1252
S'ocular albinism'
p1253
tp1254
(lp1255
I7704033
as(S'pon3'
p1256
g10
tp1257
(lp1258
I16319130
as(S'tdp1'
p1259
g415
tp1260
(lp1261
I18347181
as(S'rad51'
p1262
g579
tp1263
(lp1264
I15102670
aI16890287
aI16902145
aI19549356
as(S'akap10'
p1265
g723
tp1266
(lp1267
I16956908
aI19209010
as(S'npffr2'
p1268
S'leanness obesity'
p1269
tp1270
(lp1271
I17503329
as(S'c6orf15'
p1272
S'lymphoma, follicular'
p1273
tp1274
(lp1275
I19620980
as(S'cyp1a2'
p1276
S'cholesterol glucose insulin triglycerides'
p1277
tp1278
(lp1279
I17503978
as(S'abo'
p1280
S'malaria infection'
p1281
tp1282
(lp1283
I15754970
as(S'adam17'
p1284
S'diabetes mellitus'
p1285
tp1286
(lp1287
I18442814
as(S'hla-drb1'
p1288
S'varicose ulcer'
p1289
tp1290
(lp1291
I20854863
as(S'cyp2c9'
p1292
S'oral antidiabetic pharacokinetics'
p1293
tp1294
(lp1295
I16372821
as(S'fcgr3a'
p1296
g770
tp1297
(lp1298
I12486608
as(S'serpina3'
p1299
S'hypertension'
p1300
tp1301
(lp1302
I19341158
as(S'sema3a'
p1303
g10
tp1304
(lp1305
I19957197
as(S'akt1'
p1306
S'esophageal adenocarcinoma'
p1307
tp1308
(lp1309
I20453000
as(S'serpine1'
p1310
S'fibrinogen protein c resistance ratio prothrombin thrombosis, deep vein'
p1311
tp1312
(lp1313
I17230042
as(S'itga2'
p1314
S'thrombus formation, arterial'
p1315
tp1316
(lp1317
I11698306
as(S'ercc2'
p1318
S'endometrial cancer'
p1319
tp1320
(lp1321
I16284373
as(S'furin'
p1322
S'hypertension'
p1323
tp1324
(lp1325
I20707915
as(S'cyp17a1'
p1326
S'uterine leiomyoma'
p1327
tp1328
(lp1329
I16595228
aI16603433
as(S'c5'
p1330
g579
tp1331
(lp1332
I19344414
as(S'hoxa9'
p1333
S'arthrogryposis'
p1334
tp1335
(lp1336
I19938081
as(S'pon1'
p1337
S'coronary endothelial vasomotor dysfunction'
p1338
tp1339
(lp1340
I16940704
as(S'angpt2'
p1341
S'pregnancy loss, recurrent'
p1342
tp1343
(lp1344
I14556828
as(S'nos3'
p1345
S'polycystic kidney disease'
p1346
tp1347
(lp1348
I12380903
aI11823442
aI15628301
as(S'mthfr'
p1349
S'body mass'
p1350
tp1351
(lp1352
I17121316
as(S'pparg'
p1353
S'fasting insulin level'
p1354
tp1355
(lp1356
I14681835
as(S'gstt1'
p1357
S"non-hodgkin's lymphoma"
p1358
tp1359
(lp1360
I11406608
aI12139735
as(S'abcb1'
p1361
g30
tp1362
(lp1363
I16306861
aI15277258
aI14580164
aI15912392
aI14610718
aI15044620
aI17120199
aI16478794
aI16773678
aI16800822
aI16821592
aI17146660
aI17259654
aI17409981
aI17301692
aI17549370
aI17560460
aI18377430
aI18338763
aI18474294
aI18509181
aI18628469
aI18765553
aI18812689
aI18836089
aI18981011
aI19107762
aI19115152
aI19151448
aI19143748
aI19192650
aI19203783
aI19238328
aI19250544
aI19332043
aI19388849
aI19415305
aI19470925
aI19661039
aI19685447
aI19672706
aI19752884
aI19862647
aI19858398
aI19885596
aI19930591
aI20102361
aI20082268
aI20179710
aI20189873
aI20371218
aI20533057
aI20628376
aI20638924
aI20944127
aI21142915
aI17674045
aI17851225
aI17828752
aI17925548
aI18095031
aI18221820
aI18300948
as(S'srd5a2'
p1364
S'androgenetic alopecia'
p1365
tp1366
(lp1367
I12670724
as(S'sftpb'
p1368
S'lung diseases'
p1369
tp1370
(lp1371
I12452477
as(S'exoc3l2'
p1372
g10
tp1373
(lp1374
I20460622
as(S'soat1'
p1375
g10
tp1376
(lp1377
I16043284
aI16013913
aI17622762
as(S'nat2'
p1378
S'urinary mutagenicity'
p1379
tp1380
(lp1381
I12067576
as(S'igfbp3'
p1382
S'brain neoplasms'
p1383
tp1384
(lp1385
I18562769
as(S'sgce'
p1386
S'blepharospasm'
p1387
tp1388
(lp1389
I15728306
aI19441135
as(S'trem2'
p1390
S'conjunctivitis'
p1391
tp1392
(lp1393
I19019460
as(S'nat2'
p1394
S"non-hodgkin's lymphoma"
p1395
tp1396
(lp1397
I12139735
as(S'hmox1'
p1398
S'fibrinogen'
p1399
tp1400
(lp1401
I16117883
as(S'bcl10'
p1402
S'testicular cancer'
p1403
tp1404
(lp1405
I16229939
as(S'rps16'
p1406
S'anemia, diamond-blackfan'
p1407
tp1408
(lp1409
I19773262
as(S'hdac9'
p1410
S'hdac inhibitor-induced growth arrest.'
p1411
tp1412
(lp1413
I14623092
as(S'lpl'
p1414
S'atherosclerosis, carotid'
p1415
tp1416
(lp1417
I16430904
as(S'ifng'
p1418
S'aphthous stomatitis'
p1419
tp1420
(lp1421
I14566095
as(S'tagap'
p1422
g217
tp1423
(lp1424
I21102463
aI21102463
aI22190364
as(S'apoe'
p1425
S"alzheimer's disease (late onset)"
p1426
tp1427
(lp1428
I17474819
as(S'mif'
p1429
S'erythema nodosum'
p1430
tp1431
(lp1432
I12180727
aI17005573
as(S'il12b'
p1433
g723
tp1434
(lp1435
I19832040
as(S'ccnd1'
p1436
S'leukemia, acute lymphoblastic'
p1437
tp1438
(lp1439
I16207592
as(S'mepe'
p1440
S'bone mineral density (hip)'
p1441
tp1442
(lp1443
I19801982
as(S'mthfr'
p1444
S'overweight'
p1445
tp1446
(lp1447
I12674333
aI19442614
aI15300362
aI15777680
aI18074687
as(S'ptpra'
p1448
S'coronary artery disease'
p1449
tp1450
(lp1451
I11357934
as(S'adrb1'
p1452
g583
tp1453
(lp1454
I20129829
as(S'zic3'
p1455
S'echocardiography'
p1456
tp1457
(lp1458
I17903301
aI17903301
as(S'ikbkap'
p1459
S'alzheimer disease'
p1460
tp1461
(lp1462
I20361209
as(S'hla-dqb1'
p1463
g121
tp1464
(lp1465
I12077712
as(S'il2'
p1466
S'bone mineral density'
p1467
tp1468
(lp1469
I20060205
as(S'ercc2'
p1470
g217
tp1471
(lp1472
I19055600
as(S'cwf19l2'
p1473
g723
tp1474
(lp1475
I18398821
as(S'ccl5'
p1476
S'hiv infection'
p1477
tp1478
(lp1479
I12114533
aI11125885
as(S'ostm1'
p1480
g173
tp1481
(lp1482
I18978678
as(S'fraxa'
p1483
S"parkinson's disease"
p1484
tp1485
(lp1486
I15342126
as(S'capn10'
p1487
S'insulin'
p1488
tp1489
(lp1490
I12453914
aI12107745
aI12133483
aI15926113
aI11756349
as(S'ace'
p1491
S'polycystic kidney disease'
p1492
tp1493
(lp1494
I10983692
aI9399039
aI9180368
aI13679477
as(S'htr3b'
p1495
S'harm avoidance'
p1496
tp1497
(lp1498
I14557147
as(S'phox2b'
p1499
S'hypercapnic respiratory failure'
p1500
tp1501
(lp1502
I21051998
as(S'igf2bp2'
p1503
g381
tp1504
(lp1505
I20384434
aI20627640
as(S'ucp1'
p1506
S'insulin'
p1507
tp1508
(lp1509
I10805511
aI11439286
as(S'procr'
p1510
S'fetal loss, late'
p1511
tp1512
(lp1513
I11552992
as(S'hla-c'
p1514
g113
tp1515
(lp1516
I11169242
aI15853898
aI16947780
aI18309376
as(S'hfe'
p1517
S'breast neoplasms'
p1518
tp1519
(lp1520
I15834437
as(S'kir2dl1'
p1521
S'diabetes mellitus'
p1522
tp1523
(lp1524
I18755860
as(S'mx1'
p1525
S'multiple trauma'
p1526
tp1527
(lp1528
I15766558
aI16824203
as(S'esr1'
p1529
S'epithelial ovarian cancer'
p1530
tp1531
(lp1532
I19064572
as(S'mmp9'
p1533
S'chronic obstructive pulmonary disease/copd'
p1534
tp1535
(lp1536
I16126934
aI15498369
aI16676616
as(S'trpv6'
p1537
g1430
tp1538
(lp1539
I18276610
as(S'ada'
p1540
S'abnormalities, multiple'
p1541
tp1542
(lp1543
I16970880
as(S'slc6a4'
p1544
S'bipolar and unipolar disorder'
p1545
tp1546
(lp1547
I11913731
aI10395220
as(S'slc6a4'
p1548
S'passive avoidance'
p1549
tp1550
(lp1551
I16900105
as(S'flt3'
p1552
S'leukemia, myelomonocytic, acute'
p1553
tp1554
(lp1555
I20096459
aI20981678
as(S'mttp'
p1556
S'cholesterol, hdl cholesterol, ldl insulin lipoprotein liver disease, nonalcoholic fatty'
p1557
tp1558
(lp1559
I17464986
as(S'sorbs1'
p1560
S'precocious puberty'
p1561
tp1562
(lp1563
I12849814
as(S'nos3'
p1564
S'endothelial nitric oxide activity'
p1565
tp1566
(lp1567
I15864134
as(S'hif1a'
p1568
S'erythrocytosis, idiopathic'
p1569
tp1570
(lp1571
I14521712
as(S'maoa'
p1572
S'alcoholism body mass dopamine'
p1573
tp1574
(lp1575
I16770335
as(S'slc6a4'
p1576
S'methamphetamine abuse'
p1577
tp1578
(lp1579
I12658362
as(S'agt'
p1580
S'end- stage renal disease (esrd)'
p1581
tp1582
(lp1583
I11422735
as(S'abp1'
p1584
S'ulcerative colitis'
p1585
tp1586
(lp1587
I16489678
as(S'rit2'
p1588
S'conduct disorder'
p1589
tp1590
(lp1591
I18846501
as(S'pgr'
p1592
S'infection'
p1593
tp1594
(lp1595
I19019335
as(S'gstm1'
p1596
S'hypertension'
p1597
tp1598
(lp1599
I15167446
aI18385010
aI18444911
aI18551009
aI18610829
aI18840420
aI19057702
aI19256768
aI19782926
aI19774638
aI19884647
aI20095411
aI20511665
aI20732908
aI21053180
aI16020798
aI17182005
aI17179680
aI17298885
aI18300949
as(S'pou2f2'
p1600
S'kidney diseases'
p1601
tp1602
(lp1603
I19625999
as(S'mmp7'
p1604
S'h. pylori infection stomach cancer'
p1605
tp1606
(lp1607
I16940985
as(S'nr1h4'
p1608
g524
tp1609
(lp1610
I17681172
as(S'gstt1'
p1611
S'serum lipid parameters'
p1612
tp1613
(lp1614
I17965781
as(S'gc'
p1615
g591
tp1616
(lp1617
I12050214
as(S'fasn'
p1618
g723
tp1619
(lp1620
I19252981
aI20679621
as(S'lpl'
p1621
S'hypertension'
p1622
tp1623
(lp1624
I18649389
aI19367093
aI19664517
aI19772655
aI19818126
aI19804633
aI20350420
aI11996946
aI12704407
aI12690214
aI15257172
aI16132104
aI16168296
aI16552397
aI16534528
aI17291198
aI17299379
as(S'gjb2'
p1625
g181
tp1626
(lp1627
I12851846
aI14985372
aI12490065
aI12501766
aI12420583
aI12068628
aI18554165
aI18570691
aI18758381
aI19008837
aI18983339
aI19173109
aI19235794
aI19718752
aI20083784
aI20096468
aI20234132
aI20233142
aI20381175
aI20586333
aI20560254
aI20601923
aI20708129
aI20835527
aI21042228
aI11313763
aI11134236
aI11445873
aI11960582
aI12112666
aI12417772
aI12176179
aI15113126
aI12925341
aI15482471
aI15479191
aI15617546
aI16532460
aI17041943
aI17036313
aI18196482
aI18316665
as(S'scarb1'
p1628
S'lathosterol'
p1629
tp1630
(lp1631
I11952809
as(S'cyp2c9'
p1632
g770
tp1633
(lp1634
I12879168
aI15177309
aI19615687
aI19706858
as(S'txn2'
p1635
g1075
tp1636
(lp1637
I19165900
as(S'map3k1'
p1638
g723
tp1639
(lp1640
I17529967
aI18355772
aI18785201
aI18437204
aI19094228
aI19028704
aI18973230
aI19232126
aI19843670
aI19617217
aI17529967
aI20145138
aI20605201
aI20554749
aI20417875
aI21118973
aI17997823
as(S'max'
p1641
S'waist circumference'
p1642
tp1643
(lp1644
I19260139
as(S'ttf1'
p1645
S'congenital hypothyroidism'
p1646
tp1647
(lp1648
I18379122
as(S'xrcc1'
p1649
S'cytogenetic studies'
p1650
tp1651
(lp1652
I14602524
aI15938843
aI15680411
aI15764301
aI15491645
aI16038584
aI15450429
aI14729591
aI15992842
aI15938845
aI16343742
aI16043197
aI17078101
as(S'ace'
p1653
S'intima-media thickness'
p1654
tp1655
(lp1656
I12172317
aI11692002
as(S'saa2'
p1657
S'atherosclerosis'
p1658
tp1659
(lp1660
I15170927
aI16152805
as(S'nnmt'
p1661
S'brain ischemia'
p1662
tp1663
(lp1664
I18441319
as(S'gstt1'
p1665
S'glaucoma, primary open-angle'
p1666
tp1667
(lp1668
I11040079
as(S'slc2a9'
p1669
S'uric acid'
p1670
tp1671
(lp1672
I18759275
aI17997608
aI18179892
aI18327256
aI18327257
aI18759275
aI18834626
aI19260141
aI19503597
aI20884846
aI21294900
aI22229870
as(S'ush2a'
p1673
S'leber congenital amaurosis/lca retinal dystrophy usher syndrome'
p1674
tp1675
(lp1676
I16767206
as(S'apoc3'
p1677
S'apoc-iii'
p1678
tp1679
(lp1680
I15549499
as(S'vegfa'
p1681
S'perinatal morbidity preterm delivery'
p1682
tp1683
(lp1684
I17353160
as(S'ercc5'
p1685
g1188
tp1686
(lp1687
I20391347
as(S'cckar'
p1688
g455
tp1689
(lp1690
I12572876
as(S'bax'
p1691
S'colon cancer'
p1692
tp1693
(lp1694
I16380996
as(S'adm'
p1695
S'endometrial neoplasms'
p1696
tp1697
(lp1698
I17922433
as(S'cyp3a5'
p1699
S'tamoxifen, prophylactic effect of'
p1700
tp1701
(lp1702
I16361630
as(S'casr'
p1703
S'primary hyperparathyroidism'
p1704
tp1705
(lp1706
I11589681
aI19474519
as(S'gabrg2'
p1707
S'mood disorder'
p1708
tp1709
(lp1710
I12946574
as(S'ugt1a4'
p1711
g291
tp1712
(lp1713
I19204906
as(S'igfbp3'
p1714
S'insulin-like growth factor'
p1715
tp1716
(lp1717
I17566087
as(S'cyp26a1'
p1718
g1075
tp1719
(lp1720
I16237707
aI16933217
as(S'pde8b'
p1721
S'adenoma'
p1722
tp1723
(lp1724
I19429701
as(S'adh1b'
p1725
S'heart rate'
p1726
tp1727
(lp1728
I12545748
as(S'cyp2b6'
p1729
S'hiv infections'
p1730
tp1731
(lp1732
I18784455
aI18728241
aI19124658
aI19218571
aI19371316
aI19474786
aI19474465
aI19659438
aI19704172
aI19812066
aI20662624
aI20625352
aI20720517
aI20696882
aI20860463
aI20841522
aI18090046
aI18281305
as(S'ptpn1'
p1733
S'diabetes, type 2 glucose insulin obesity'
p1734
tp1735
(lp1736
I16677372
as(S'per1'
p1737
S'diurnal preference'
p1738
tp1739
(lp1740
I10412192
aI17051316
as(S'aff3'
p1741
g113
tp1742
(lp1743
I20498205
aI20444755
aI20453842
aI20453842
as(S'zmiz1'
p1744
g169
tp1745
(lp1746
I19929986
as(S'cat'
p1747
S'esophageal neoplasms'
p1748
tp1749
(lp1750
I20643115
as(S'nfkbib'
p1751
S'ovarian cancer'
p1752
tp1753
(lp1754
I19500386
as(S'slc22a4'
p1755
S'adenocarcinoma'
p1756
tp1757
(lp1758
I19581171
as(S'limd1'
p1759
g415
tp1760
(lp1761
I20226061
as(S'ptpn22'
p1762
g973
tp1763
(lp1764
I16015369
aI20560680
aI18200060
aI20410501
as(S'lhb'
p1765
S'ovulatory dysfunctions'
p1766
tp1767
(lp1768
I12734546
as(S'tbpl1'
p1769
S'iron levels'
p1770
tp1771
(lp1772
I15673318
as(S'kcnq1'
p1773
S'diabetes mellitus, type 2'
p1774
tp1775
(lp1776
I19149796
aI19252135
aI19850681
aI21261977
aI18711366
aI18711367
aI19401414
aI20174558
aI20581827
aI21573907
aI21799836
as(S'traf1'
p1777
g121
tp1778
(lp1779
I19336421
as(S'esr1'
p1780
g1075
tp1781
(lp1782
I18360040
as(S'mt2a'
p1783
S'carotid artery stenosis'
p1784
tp1785
(lp1786
I17622311
as(S'ucn3'
p1787
g758
tp1788
(lp1789
I18504423
as(S'adipoq'
p1790
S'schizophrenia'
p1791
tp1792
(lp1793
I18506375
aI20032495
as(S'slc25a27'
p1794
S'schizophrenia'
p1795
tp1796
(lp1797
I17066476
as(S'c2cd4a'
p1798
S'diabetes mellitus, type 2'
p1799
tp1800
(lp1801
I20818381
aI21799836
aI21873549
as(S'adm'
p1802
S'diabetes, type 2'
p1803
tp1804
(lp1805
I12753312
aI12753312
as(S'atxn7'
p1806
g505
tp1807
(lp1808
I19235102
as(S'dbp'
p1809
S'bone density'
p1810
tp1811
(lp1812
I12968673
as(S'ifng'
p1813
S'graft rejection, liver'
p1814
tp1815
(lp1816
I12089714
as(S'cyp3a4'
p1817
S'irinotecan pharmacokinetics'
p1818
tp1819
(lp1820
I15523087
aI15801936
as(S'maoa'
p1821
S'verbal fluency'
p1822
tp1823
(lp1824
I15341275
as(S'il7ra'
p1825
g217
tp1826
(lp1827
I17660530
as(S'adrb3'
p1828
S'glucose tolerance'
p1829
tp1830
(lp1831
I10805511
as(S'mbl2'
p1832
S'pregnancy loss'
p1833
tp1834
(lp1835
I18927129
as(S'csmd2'
p1836
S'death, sudden, cardiac'
p1837
tp1838
(lp1839
I20360844
as(S'il1rn'
p1840
S'iga nephropathy'
p1841
tp1842
(lp1843
I12138282
as(S'abcc1'
p1844
g149
tp1845
(lp1846
I16464259
as(S'csnk2a1p'
p1847
g723
tp1848
(lp1849
I20625391
as(S'irf1'
p1850
g221
tp1851
(lp1852
I16944293
as(S'pparg'
p1853
S'diabetes, type 2'
p1854
tp1855
(lp1856
I16367885
aI16367885
aI15797964
aI11980626
aI15782399
aI14988278
aI14633865
aI14514601
aI12923397
aI12079854
aI11928067
aI14581147
aI16804087
aI17192490
aI17463248
aI17601994
aI17020404
aI17570749
aI18426861
aI18466209
aI18498634
aI18598350
aI18597214
aI18984664
aI19020324
aI19002430
aI19125195
aI19225753
aI19247372
aI19303976
aI19324937
aI19418728
aI19455305
aI19506043
aI19502414
aI19536736
aI19592620
aI19846176
aI19846173
aI19862325
as(S'nfkb1'
p1857
S'c-reactive protein'
p1858
tp1859
(lp1860
I16907704
as(S'vegfa'
p1861
S'esophageal cancer'
p1862
tp1863
(lp1864
I19584152
as(S'ace'
p1865
S'vo(2max)'
p1866
tp1867
(lp1868
I12967686
as(S'terc'
p1869
S'anemia, aplastic'
p1870
tp1871
(lp1872
I12090986
as(S'cpb2'
p1873
g611
tp1874
(lp1875
I18986391
aI18836720
as(S'adrb2'
p1876
g591
tp1877
(lp1878
I19284637
aI15853829
aI17143563
aI17531924
as(S'pomc'
p1879
S'normal variation in leptin levels'
p1880
tp1881
(lp1882
I10487685
as(S'crp'
p1883
S'stroke, ischemic'
p1884
tp1885
(lp1886
I16266402
aI15308783
aI16733231
as(S'prkdc'
p1887
S'kidney cancer'
p1888
tp1889
(lp1890
I16510122
as(S'txnrd2'
p1891
S'diabetic nephropathies'
p1892
tp1893
(lp1894
I21085059
as(S'cd40'
p1895
S'hodgkin disease'
p1896
tp1897
(lp1898
I20473910
as(S'esr1'
p1899
g611
tp1900
(lp1901
I19473078
aI18309176
as(S'casp7'
p1902
S'esophageal adenocarcinoma'
p1903
tp1904
(lp1905
I20453000
as(S'wnt4'
p1906
g1188
tp1907
(lp1908
I20601957
aI20601957
as(S'abcc8'
p1909
S'esophageal adenocarcinoma'
p1910
tp1911
(lp1912
I20453000
as(S'pgr'
p1913
S'endometrial cancer risk.'
p1914
tp1915
(lp1916
I12218173
as(S'ephx1'
p1917
S'1,3-butadiene sensitivity'
p1918
tp1919
(lp1920
I12605384
as(S'xylt1'
p1921
g381
tp1922
(lp1923
I17003309
as(S'g6pc2'
p1924
S'diabetes, type 2'
p1925
tp1926
(lp1927
I19082990
aI19533084
aI19651812
as(S'tlr4'
p1928
S'diabetes mellitus, type 2'
p1929
tp1930
(lp1931
I20496780
aI18174680
as(S'pax8'
p1932
S'hypothyroidism, congenital'
p1933
tp1934
(lp1935
I16763387
as(S'nr1d1'
p1936
S'neoplasms'
p1937
tp1938
(lp1939
I20174623
as(S'vdr'
p1940
S'estradiol'
p1941
tp1942
(lp1943
I15552843
as(S'lepr'
p1944
S'hunger and satiety'
p1945
tp1946
(lp1947
I19793853
as(S'ercc2'
p1948
S'stomach cancer'
p1949
tp1950
(lp1951
I15802298
aI16622263
aI17617021
as(S'wrn'
p1952
S'bone density but not spondylosis'
p1953
tp1954
(lp1955
I11498731
as(S'chat'
p1956
S'schizophrenia'
p1957
tp1958
(lp1959
I17503482
as(S'kcnn3'
p1960
S'atrial fibrillation'
p1961
tp1962
(lp1963
I20173747
aI20173747
as(S'xrcc1'
p1964
S'mutagen sensitivity'
p1965
tp1966
(lp1967
I12082022
as(S'prkar2b'
p1968
S'clozapine'
p1969
tp1970
(lp1971
I20195266
as(S'mbl2'
p1972
S'leishmaniasis, visceral'
p1973
tp1974
(lp1975
I17357060
as(S'hfe'
p1976
g866
tp1977
(lp1978
I14670915
aI12002748
aI16324464
aI16047841
aI15654232
aI15388046
aI12380399
aI11454185
aI11783942
aI12972035
aI15610558
aI11730630
aI14675248
aI9234244
aI12537660
aI11939483
aI15223008
aI18452683
aI18419350
aI18500222
aI18651828
aI18665827
aI18762941
aI18705322
aI18842428
aI18820912
aI19008010
aI18848943
aI19018338
aI19214511
aI19159930
aI19359997
aI19554541
aI19715939
aI19820015
aI20007136
aI19706067
aI20084012
aI20073670
aI20107990
aI20101754
aI20178892
aI20160468
aI20193033
aI20345568
aI20583211
aI20594259
aI20722701
aI20714725
aI20813792
aI20954257
aI20814896
aI11051367
aI11114141
aI11199371
aI11168438
aI11159767
aI11151887
aI11325323
aI11224684
aI11394651
aI11386022
aI11358395
aI11332643
aI11436126
aI11427444
aI11474212
aI11479183
aI11478530
aI11499833
aI11495086
aI11579943
aI11564085
aI11500066
aI11722599
aI11686223
aI11680538
aI11673657
aI11781701
aI11774187
aI11738096
aI11812557
aI11804665
aI11788568
aI11855561
aI11840200
aI11903355
aI11887210
aI11960574
aI11953685
aI12059121
aI12180078
aI12241015
aI12190182
aI12384978
aI12436244
aI12457803
aI12537659
aI12508966
aI12547216
aI12542741
aI12662406
aI12624489
aI12622622
aI12691865
aI12737949
aI12714823
aI12763366
aI12791037
aI12952143
aI12851225
aI14557859
aI14503989
aI14499790
aI12972032
aI14633868
aI14648375
aI14642607
aI14641999
aI14703688
aI14671617
aI14671616
aI14740507
aI15017658
aI15042317
aI15025725
aI15101996
aI15099342
aI15070663
aI15061375
aI15141324
aI15121519
aI15273174
aI15266614
aI15287851
aI15319650
aI15477198
aI15377292
aI15517265
aI15503019
aI15498100
aI15483651
aI15528154
aI15566515
aI15581829
aI15727249
aI15684872
aI15775751
aI15763983
aI15815212
aI15863667
aI15941661
aI15929798
aI15995871
aI16102632
aI16055358
aI16039334
aI16011012
aI16113534
aI16174659
aI16140024
aI16225403
aI16222171
aI16285477
aI16399493
aI16393683
aI16451136
aI16433696
aI16615007
aI16672055
aI16878186
aI16849282
aI16847405
aI16979952
aI17061732
aI17058523
aI17079357
aI17067586
aI17108759
aI17240320
aI17313717
aI17525682
aI17474269
aI17597476
aI17661915
aI17661761
aI17767550
aI17724144
aI17722428
aI17710673
aI17924859
aI17949288
aI18036208
aI18073584
aI18061976
aI18042412
aI18201677
aI18199861
aI18263976
aI18317757
as(S'drd3'
p1979
S'alcoholism'
p1980
tp1981
(lp1982
I11762133
aI9184311
aI18552399
aI19503018
aI17671965
as(S'ercc2'
p1983
S'arsenic-induced hyperkeratosis'
p1984
tp1985
(lp1986
I12749816
as(S'ppargc1a'
p1987
S'diabetes mellitus, experimental'
p1988
tp1989
(lp1990
I18270681
as(S'slc6a3'
p1991
S'attention deficit hyperactivity disorder drug hypersensitivity'
p1992
tp1993
(lp1994
I16917950
as(S'mif'
p1995
S'bacteremia'
p1996
tp1997
(lp1998
I16929348
as(S'cyp2c9'
p1999
S'e7070 phamacokinetics'
p2000
tp2001
(lp2002
I16232205
as(S'psen1'
p2003
S'abeta load in brain'
p2004
tp2005
(lp2006
I11389157
as(S'ppy'
p2007
g315
tp2008
(lp2009
I17235527
as(S'tet1'
p2010
S'hepatitis c'
p2011
tp2012
(lp2013
I19420352
as(S'hla-b'
p2014
S'pulmonary hypertension'
p2015
tp2016
(lp2017
I15640334
as(S'ace'
p2018
S'coronary artery plaque calcification'
p2019
tp2020
(lp2021
I9561998
as(S'retn'
p2022
S'resistin'
p2023
tp2024
(lp2025
I16670163
as(S'dut'
p2026
g711
tp2027
(lp2028
I19403629
as(S'drd1'
p2029
S'psychosis'
p2030
tp2031
(lp2032
I11723200
as(S'f8'
p2033
S'protein c'
p2034
tp2035
(lp2036
I15735794
as(S'slc12a9'
p2037
S'heart rate'
p2038
tp2039
(lp2040
I20639392
as(S'capza1'
p2041
S'blood pressure'
p2042
tp2043
(lp2044
I21572416
as(S'comt'
p2045
S'bladder cancer leukemia lung cancer'
p2046
tp2047
(lp2048
I16956909
as(S'ace'
p2049
S'polycythemia'
p2050
tp2051
(lp2052
I18339134
aI15848608
as(S'fcgr2a'
p2053
S'arthritis, rheumatoid'
p2054
tp2055
(lp2056
I18843786
aI18930989
aI19898481
aI20707220
aI17652100
as(S'cyp2d6'
p2057
S'exfoliation syndrome'
p2058
tp2059
(lp2060
I18625943
as(S'vkorc1'
p2061
g1075
tp2062
(lp2063
I18813101
as(S'kl'
p2064
g611
tp2065
(lp2066
I15677572
as(S'htr1b'
p2067
S'minimum lifetime body mass index'
p2068
tp2069
(lp2070
I11690602
as(S'cdkn2a'
p2071
S'squamous cell carcinoma of the head and neck'
p2072
tp2073
(lp2074
I11720478
as(S'ptpn22'
p2075
g591
tp2076
(lp2077
I18556337
aI18578611
aI19141582
aI19438904
aI20088380
aI20140847
aI20331840
aI20445565
aI20510318
aI20849903
aI21270278
aI17697317
aI17941906
aI18001305
aI18056891
aI18179648
aI18252906
aI18305142
aI18292987
aI21829393
as(S'nampt'
p2078
g315
tp2079
(lp2080
I18940394
as(S'hla-drb1'
p2081
S'cutaneous neonatal lupus'
p2082
tp2083
(lp2084
I15334474
as(S'ace'
p2085
g291
tp2086
(lp2087
I18494379
aI18936436
aI20565774
as(S'f7'
p2088
S'warfarin sensitivity'
p2089
tp2090
(lp2091
I17048007
as(S'abcg2'
p2092
S'pitavastatin pharmacokinetics'
p2093
tp2094
(lp2095
I17460607
as(S'hla'
p2096
S'ulcerative colitis'
p2097
tp2098
(lp2099
I11696218
as(S'adh1b'
p2100
S'alcohol abuse cirrhosis, alcoholic pancreatitis, chronic'
p2101
tp2102
(lp2103
I17454860
as(S'faslg'
p2104
S'alopecia areata'
p2105
tp2106
(lp2107
I20394629
as(S'apoa5'
p2108
S'stroke, ischemic'
p2109
tp2110
(lp2111
I16954607
as(S'atp1b1'
p2112
g571
tp2113
(lp2114
I19305409
as(S'hla-a'
p2115
S'nasopharyngeal cancer'
p2116
tp2117
(lp2118
I12464650
as(S'il6'
p2119
S'vascular disease'
p2120
tp2121
(lp2122
I15104679
aI17115186
as(S'pdk4'
p2123
S'diabetes, type 2'
p2124
tp2125
(lp2126
I15776585
as(S'mir191'
p2127
g723
tp2128
(lp2129
I20167074
as(S'sod1'
p2130
g579
tp2131
(lp2132
I19423521
as(S'igf2r'
p2133
S'intrauterine growth'
p2134
tp2135
(lp2136
I15506681
as(S'slc24a4'
p2137
S'cell transformation, neoplastic'
p2138
tp2139
(lp2140
I18483556
as(S'cbs'
p2141
g439
tp2142
(lp2143
I17891500
as(S'apoa1'
p2144
g723
tp2145
(lp2146
I11771311
aI11771311
as(S'pltp'
p2147
S'cholesterol, hdl cholesterol, ldl'
p2148
tp2149
(lp2150
I16770077
as(S'gpx1'
p2151
g723
tp2152
(lp2153
I14744747
aI15192016
aI16287877
aI15829318
aI12496980
aI11103801
aI12496980
aI14744747
aI16424062
aI16615267
aI16797832
aI16868544
aI17548672
aI18563616
aI19347979
aI19428376
aI20306294
aI20378690
aI20477822
aI20852007
aI17634480
aI18298806
as(S'clec4m'
p2154
S'dengue'
p2155
tp2156
(lp2157
I18708672
as(S'cyp1a1'
p2158
S'birth weight'
p2159
tp2160
(lp2161
I17526865
aI19147266
aI11779261
aI16837240
aI17610937
aI17706398
as(S'mad2l1'
p2162
g723
tp2163
(lp2164
I17210994
aI17268814
aI20516147
as(S'ifngr2'
p2165
g117
tp2166
(lp2167
I15004750
aI16690980
as(S'il2rb'
p2168
S'leishmaniasis'
p2169
tp2170
(lp2171
I17108990
as(S'rit2'
p2172
g217
tp2173
(lp2174
I17903300
aI17903300
as(S'ppara'
p2175
S'apoc-iii'
p2176
tp2177
(lp2178
I15549499
as(S'agt'
p2179
g1696
tp2180
(lp2181
I11024214
as(S'cd34'
p2182
S'hepatitis c'
p2183
tp2184
(lp2185
I15063762
as(S'gstt1'
p2186
S'dysmenorrhea'
p2187
tp2188
(lp2189
I20197727
as(S'prkag2'
p2190
S'kidney diseases'
p2191
tp2192
(lp2193
I20383146
as(S'c5'
p2194
S'age-related macular degeneration'
p2195
tp2196
(lp2197
I20022638
as(S'nr1h3'
p2198
S'diabetes, type 2'
p2199
tp2200
(lp2201
I19292929
as(S'enosf1'
p2202
g591
tp2203
(lp2204
I20458436
as(S'msrb3'
p2205
S'primary tooth development'
p2206
tp2207
(lp2208
I20195514
aI20195514
as(S'ar'
p2209
S'uterine endometrial carcinoma'
p2210
tp2211
(lp2212
I10708486
as(S'mrpl19'
p2213
S'dyslexia'
p2214
tp2215
(lp2216
I17309879
as(S'hla-dpb1'
p2217
g1658
tp2218
(lp2219
I15784113
aI1774196
aI9179433
aI9179433
aI8335847
aI19439981
aI16792590
aI21814517
as(S'bdnf'
p2220
S'obsessive compulsive disorder'
p2221
tp2222
(lp2223
I17241828
aI17375136
aI19219856
aI19589503
as(S'lct'
p2224
S'diabetes, type 2'
p2225
tp2226
(lp2227
I15054412
aI15054412
as(S'chrna3'
p2228
g723
tp2229
(lp2230
I18385738
aI18385676
aI18780872
aI19465454
aI19443489
aI19641473
aI19789337
aI19733931
aI19955392
aI18780872
aI18385676
aI18385738
aI20234319
aI20068085
aI20587604
as(S'casp10'
p2231
S'breast cancer cervical cancer colorectal cancer esophageal cancer lung cancer stomach cancer'
p2232
tp2233
(lp2234
I17450141
as(S'tgfb1'
p2235
g381
tp2236
(lp2237
I17428349
aI18627514
aI15694998
aI18158121
as(S'il1b'
p2238
S'diabetes mellitus'
p2239
tp2240
(lp2241
I20388088
aI21054877
as(S'hla-dmb'
p2242
S'dermatitis, occupational'
p2243
tp2244
(lp2245
I18348411
as(S'hivep3'
p2246
S'echocardiography'
p2247
tp2248
(lp2249
I17903301
as(S'cyp2d6'
p2250
S'phenytoin levels'
p2251
tp2252
(lp2253
I11829201
as(S'apob'
p2254
g291
tp2255
(lp2256
I14550622
aI19191080
aI19888660
as(S'hla-dqa1'
p2257
S'hypertension'
p2258
tp2259
(lp2260
I11798899
aI12212201
as(S'znf429'
p2261
S'radius fractures'
p2262
tp2263
(lp2264
I19207018
as(S'fgf18'
p2265
S'nonsyndromic cleft lip'
p2266
tp2267
(lp2268
I19727229
as(S'tpmt'
p2269
S'lupus erythematosus'
p2270
tp2271
(lp2272
I16272700
as(S'atm'
p2273
S'radiosensitivity'
p2274
tp2275
(lp2276
I14643952
as(S'mtap'
p2277
S'cutaneous nevi'
p2278
tp2279
(lp2280
I19578365
as(S'ntrk2'
p2281
S'carcinoma, transitional cell'
p2282
tp2283
(lp2284
I18534558
as(S'hspa1l'
p2285
S'hearing loss, noise-induced'
p2286
tp2287
(lp2288
I17009596
aI18813331
as(S'nos3'
p2289
S'blood nitrite oxidative stress'
p2290
tp2291
(lp2292
I16962929
as(S'cyp2c19'
p2293
S'alveolar bone loss'
p2294
tp2295
(lp2296
I12047484
aI14659971
as(S'col1a1'
p2297
S'lumbar disc disease'
p2298
tp2299
(lp2300
I15994869
as(S'xkr6'
p2301
g1929
tp2302
(lp2303
I20160193
as(S'sost'
p2304
S'bone mineral density'
p2305
tp2306
(lp2307
I12398949
aI19898734
aI19453261
as(S'osbp2'
p2308
g455
tp2309
(lp2310
I18294060
as(S'tnf'
p2311
S'carcinoma, basal cell'
p2312
tp2313
(lp2314
I12490310
aI14714556
as(S'orm2'
p2315
S'warfarin sensitivity'
p2316
tp2317
(lp2318
I17048007
as(S'f2'
p2319
S'cancer'
p2320
tp2321
(lp2322
I12757770
as(S'pdcd1'
p2323
S'rheumatoid arthritis'
p2324
tp2325
(lp2326
I15883854
aI15188352
aI15912506
aI15912506
aI15022318
aI15022318
aI15818672
aI17468813
aI18578969
aI19116915
aI19074163
aI19220647
aI19567624
aI20677149
aI20388336
aI17999073
aI18069935
aI18174230
as(S'col1a1'
p2327
S'bone density osteoporosis'
p2328
tp2329
(lp2330
I17201588
as(S'fgf2'
p2331
S'hypertension'
p2332
tp2333
(lp2334
I19586755
as(S'cyp2d6'
p2335
S'multiple chemical sensitivity'
p2336
tp2337
(lp2338
I15256524
aI20430047
as(S'cbs'
p2339
S'carcinoma'
p2340
tp2341
(lp2342
I11074524
aI17726616
as(S'c1galt1c1'
p2343
S'nephropathy, iga'
p2344
tp2345
(lp2346
I17228361
as(S'fgfr4'
p2347
S'bladder cancer'
p2348
tp2349
(lp2350
I17088904
as(S'igfbp3'
p2351
g1334
tp2352
(lp2353
I19938081
as(S'lrp5'
p2354
g1929
tp2355
(lp2356
I18349089
aI18455228
aI19801982
aI20045498
aI18026682
as(S'cyp2c9'
p2357
S'thrombosis, deep vein'
p2358
tp2359
(lp2360
I15090156
aI11927841
as(S'hla-drb1'
p2361
S'leukemia, childhood acute lymphoblastic'
p2362
tp2363
(lp2364
I12008082
as(S'cebpe'
p2365
S'acute lymphoblastic leukemia (childhood)'
p2366
tp2367
(lp2368
I19684604
as(S'abcb1'
p2369
S'hypertension'
p2370
tp2371
(lp2372
I15952872
aI12805007
aI18385010
aI18442890
aI18718676
aI19197249
aI19317599
aI19774638
aI18243305
as(S'tlr4'
p2373
S'lymphadenitis'
p2374
tp2375
(lp2376
I17096074
aI20399512
as(S'slc30a8'
p2377
g315
tp2378
(lp2379
I20929593
as(S'proz'
p2380
S'neoplasms'
p2381
tp2382
(lp2383
I18246466
as(S'kcns3'
p2384
S'migraine with aura'
p2385
tp2386
(lp2387
I18676988
as(S'darc'
p2388
S'hiv infections'
p2389
tp2390
(lp2391
I19620399
as(S'cyp2c19'
p2392
S'hypertension'
p2393
tp2394
(lp2395
I15660966
aI19348299
aI18205890
as(S'hla-b'
p2396
S"wegener's granulomatosis"
p2397
tp2398
(lp2399
I11904677
as(S'epo'
p2400
S'acute kidney injury'
p2401
tp2402
(lp2403
I21092038
as(S'il18'
p2404
S'acute lung injury'
p2405
tp2406
(lp2407
I20522205
as(S'vdr'
p2408
S'lung diseases'
p2409
tp2410
(lp2411
I18492342
aI20419464
as(S'dbh'
p2412
S'alcoholism'
p2413
tp2414
(lp2415
I16133787
aI16252068
aI12488060
as(S'runx1'
p2416
g2332
tp2417
(lp2418
I19665068
as(S'mmp1'
p2419
S'diabetic nephropathies'
p2420
tp2421
(lp2422
I19578796
as(S'slc6a3'
p2423
S'manic-depressive illness'
p2424
tp2425
(lp2426
I9149327
as(S'txnrd1'
p2427
S'adenoma'
p2428
tp2429
(lp2430
I18483336
as(S'mcl1'
p2431
g70
tp2432
(lp2433
I18452656
as(S'drd3'
p2434
S'personality traits'
p2435
tp2436
(lp2437
I17018139
aI17208375
as(S'aldh1a2'
p2438
g1662
tp2439
(lp2440
I19886994
as(S'cpb2'
p2441
S'preeclampsia'
p2442
tp2443
(lp2444
I15333035
as(S'mthfr'
p2445
S'bone mineral density'
p2446
tp2447
(lp2448
I15336613
aI17141597
as(S'il4r'
p2449
g1658
tp2450
(lp2451
I10887316
aI10390422
aI10677312
aI11543630
aI9620765
aI11022011
aI9620765
aI16387595
aI16600026
aI17083349
aI17201240
aI9620765
aI17586032
aI18691306
aI18849614
aI20002627
aI20128416
aI20085599
aI20484924
aI20517665
aI17170387
aI17823973
as(S'myo5a'
p2452
S'hip'
p2453
tp2454
(lp2455
I17903296
as(S'hps5'
p2456
S'serum amyloid a protein'
p2457
tp2458
(lp2459
I21124955
as(S'il1rn'
p2460
S'cytokine lung function'
p2461
tp2462
(lp2463
I17351514
as(S'cd3eap'
p2464
g723
tp2465
(lp2466
I16690207
aI16817948
aI18289367
as(S'hla-a'
p2467
g1526
tp2468
(lp2469
I18186801
as(S'cyp1a1'
p2470
S'malignant mesothelioma'
p2471
tp2472
(lp2473
I16697254
as(S'retn'
p2474
g655
tp2475
(lp2476
I19544118
aI20300528
as(S'mras'
p2477
S'coronary artery disease'
p2478
tp2479
(lp2480
I19198612
aI19198612
as(S'cyp2c9'
p2481
S'cancer'
p2482
tp2483
(lp2484
I15691505
as(S'gsta1'
p2485
g2011
tp2486
(lp2487
I18161889
as(S'ccl2'
p2488
S'pancreatitis, acute'
p2489
tp2490
(lp2491
I15880317
as(S'ercc1'
p2492
S'oral cancer'
p2493
tp2494
(lp2495
I16393248
as(S'hla-drb1'
p2496
g307
tp2497
(lp2498
I19906105
as(S'nos3'
p2499
S'blood pressure, arterial homocysteine'
p2500
tp2501
(lp2502
I17117898
as(S'lpa'
p2503
S'lipoprotein a-i'
p2504
tp2505
(lp2506
I21900290
as(S'ccl11'
p2507
g217
tp2508
(lp2509
I16872505
aI19865101
as(S'nos3'
p2510
S'nitric oxide activity'
p2511
tp2512
(lp2513
I12142730
as(S'tgfb1'
p2514
S'respiratory syncytial virus'
p2515
tp2516
(lp2517
I12590978
aI12507818
as(S'xrcc1'
p2518
S'non-small cell lung cancer'
p2519
tp2520
(lp2521
I12873719
as(S'f2r'
p2522
g821
tp2523
(lp2524
I20691446
as(S'lmna'
p2525
S'diabetes, type 2 metabolic syndrome'
p2526
tp2527
(lp2528
I17327461
as(S'lta'
p2529
S'cervical intraepithelial neoplasia grade 3'
p2530
tp2531
(lp2532
I19012493
as(S'tgfb1'
p2533
g46
tp2534
(lp2535
I19111454
aI19797132
aI19933216
aI15175276
aI16704031
as(S'adipoq'
p2536
S'atherosclerosis, coronary'
p2537
tp2538
(lp2539
I15209773
aI15855354
as(S'alox15'
p2540
g723
tp2541
(lp2542
I19170196
as(S'clec2d'
p2543
g459
tp2544
(lp2545
I18465072
as(S'ntsr1'
p2546
S'several psychiatric disorders'
p2547
tp2548
(lp2549
I19086053
as(S'sumo4'
p2550
S'juvenile arthritis'
p2551
tp2552
(lp2553
I16159953
as(S'nfe2l2'
p2554
S'stomach ulcer'
p2555
tp2556
(lp2557
I17143558
aI17982693
as(S'hfe'
p2558
S'hepatitis c, chronic steatohepatitis'
p2559
tp2560
(lp2561
I17228846
as(S'gab1'
p2562
S'gastric atrophy h. pylori infection'
p2563
tp2564
(lp2565
I17211494
as(S'brap'
p2566
S'atherosclerosis'
p2567
tp2568
(lp2569
I19198608
as(S'app'
p2570
S'schizophrenia'
p2571
tp2572
(lp2573
I12925374
as(S'gstm1'
p2574
S'aflatoxin-albumin'
p2575
tp2576
(lp2577
I15454734
as(S'fads1'
p2578
g10
tp2579
(lp2580
I18320251
as(S'nod2'
p2581
S'allergic conjunctivitis'
p2582
tp2583
(lp2584
I16008671
as(S'ccl2'
p2585
S'hepatitis c'
p2586
tp2587
(lp2588
I17465499
aI18619701
as(S'runx2'
p2589
g1445
tp2590
(lp2591
I18373722
aI19424741
aI17878995
as(S'abcb1'
p2592
S'liver disease'
p2593
tp2594
(lp2595
I15931768
as(S'kir3ds1'
p2596
S'respiratory papillomatosis'
p2597
tp2598
(lp2599
I19861144
as(S'optc'
p2600
S'eye abnormalities'
p2601
tp2602
(lp2603
I19844586
as(S'mir30e'
p2604
g758
tp2605
(lp2606
I20579744
as(S'calca'
p2607
S'schizophrenia'
p2608
tp2609
(lp2610
I11317366
as(S'mtrr'
p2611
S'cleft lip with cleft palate cleft lip without cleft palate'
p2612
tp2613
(lp2614
I16470748
as(S'serpina1'
p2615
S'airway obstruction'
p2616
tp2617
(lp2618
I20595457
as(S'brca2'
p2619
S'spontaneous chromosomal instability'
p2620
tp2621
(lp2622
I14670928
as(S'ugt1a1'
p2623
g125
tp2624
(lp2625
I20389299
as(S'adra2a'
p2626
S'blood pressure'
p2627
tp2628
(lp2629
I12023679
aI11886485
as(S'il1rn'
p2630
S'early postmenopausal bone loss at the spine.'
p2631
tp2632
(lp2633
I9763149
as(S'stat6'
p2634
S'atopy beta-lactam allergy'
p2635
tp2636
(lp2637
I16867043
as(S'slc6a4'
p2638
S"tourette's syndrome"
p2639
tp2640
(lp2641
I11166081
as(S'ext2'
p2642
S'diabetes mellitus, type 2'
p2643
tp2644
(lp2645
I18210030
as(S'cdkn1a'
p2646
S'neoplasms'
p2647
tp2648
(lp2649
I15960923
aI20112071
aI20433229
aI18251939
as(S'pcsk9'
p2650
g22
tp2651
(lp2652
I20579540
as(S'mc4r'
p2653
S'eating disorders obesity'
p2654
tp2655
(lp2656
I16507637
as(S'abcb1'
p2657
S'esophageal cancer'
p2658
tp2659
(lp2660
I17551301
as(S'nr4a2'
p2661
S"parkinson's disease"
p2662
tp2663
(lp2664
I15276233
aI15390059
aI12875905
aI15197702
aI11914402
aI12496759
aI12815740
aI12875905
aI12827450
aI12756136
aI11914402
aI12496759
aI16532445
aI16977628
aI17427185
aI19224617
aI19065535
as(S'kiaa1109'
p2665
S'arthritis, rheumatoid'
p2666
tp2667
(lp2668
I19302705
aI19455118
aI17558408
aI20553587
aI17999365
as(S'tgfbr3'
p2669
g217
tp2670
(lp2671
I18174230
as(S'cyp2d6'
p2672
g2
tp2673
(lp2674
I7876880
as(S'angptl4'
p2675
S'diabetes, type 2'
p2676
tp2677
(lp2678
I18442626
as(S'adrb1'
p2679
S'blood pressure'
p2680
tp2681
(lp2682
I12023679
as(S'itgb3'
p2683
S'thrombophilia and vascular disease'
p2684
tp2685
(lp2686
I14706682
as(S'mc1r'
p2687
S'hair color'
p2688
tp2689
(lp2690
I17316231
aI17952075
as(S'mtr'
p2691
g579
tp2692
(lp2693
I15797993
aI17119116
aI17454638
aI18636124
as(S'alad'
p2694
S'lead nephrotoxicity'
p2695
tp2696
(lp2697
I19548578
as(S'kcnd2'
p2698
S'ekg, abnormal'
p2699
tp2700
(lp2701
I15563876
as(S'sat'
p2702
g723
tp2703
(lp2704
I9717831
as(S'asip'
p2705
S'pigmentation'
p2706
tp2707
(lp2708
I11833005
aI11833005
aI15016309
as(S'ccnh'
p2709
g723
tp2710
(lp2711
I11062157
aI16492920
aI17707548
as(S'drd4'
p2712
g125
tp2713
(lp2714
I17879560
as(S'rad50'
p2715
g117
tp2716
(lp2717
I20485362
as(S'ctla4'
p2718
S'chromosome abnormality'
p2719
tp2720
(lp2721
I18361934
as(S'ifng'
p2722
S'disc disease, intervertebral'
p2723
tp2724
(lp2725
I15733644
as(S'angpt2'
p2726
S'idiopathic recurrent miscarriage'
p2727
tp2728
(lp2729
I14556828
as(S'adam17'
p2730
g217
tp2731
(lp2732
I18493210
as(S'chek2'
p2733
S'diabetes, type 2'
p2734
tp2735
(lp2736
I19855918
as(S'abcb1'
p2737
S'phenytoin levels'
p2738
tp2739
(lp2740
I11908757
as(S'crp'
p2741
S'arterial pulse wave velocity c-reactive protein'
p2742
tp2743
(lp2744
I16832152
as(S'apoc2'
p2745
S'plasma hdl-c levels'
p2746
tp2747
(lp2748
I19878569
as(S'mtr'
p2749
g46
tp2750
(lp2751
I19625176
as(S'ros1'
p2752
g770
tp2753
(lp2754
I17975119
as(S'c4'
p2755
S'c4a null haplotypes'
p2756
tp2757
(lp2758
I1817567
as(S'slc4a5'
p2759
S'blood pressure, arterial'
p2760
tp2761
(lp2762
I16365189
as(S'serpine1'
p2763
S'pregnancy loss'
p2764
tp2765
(lp2766
I16154434
aI18503142
aI18803625
aI18931510
aI19004141
aI19395327
as(S'cart'
p2767
S'schizophrenia'
p2768
tp2769
(lp2770
I15234472
as(S'creb1'
p2771
S'childhood-onset mood disorders'
p2772
tp2773
(lp2774
I15999345
as(S'slc12a3'
p2775
S'gitelman syndrome'
p2776
tp2777
(lp2778
I18362449
aI19033254
aI19489442
as(S'apc'
p2779
S'intrauterine growth restriction'
p2780
tp2781
(lp2782
I19768578
as(S'mmp2'
p2783
S'brain hemorrhage'
p2784
tp2785
(lp2786
I16961137
as(S'fem1b'
p2787
g655
tp2788
(lp2789
I18757445
as(S'tceal7'
p2790
S'ovarian cancer'
p2791
tp2792
(lp2793
I19419758
as(S'mthfr'
p2794
S'coke-oven toxicity'
p2795
tp2796
(lp2797
I16986504
as(S'il6'
p2798
S"takayasu's arteritis"
p2799
tp2800
(lp2801
I17002904
as(S'cyp3a5'
p2802
S'cyclosporine metabolism'
p2803
tp2804
(lp2805
I17049128
as(S'notch4'
p2806
g10
tp2807
(lp2808
I14966150
aI14966150
aI17452726
as(S'ggh'
p2809
S'adenocarcinoma'
p2810
tp2811
(lp2812
I18842806
as(S'bmp2'
p2813
S'sids/sudden infant death syndrome'
p2814
tp2815
(lp2816
I15240857
as(S'grik2'
p2817
S'schizophrenia'
p2818
tp2819
(lp2820
I12467946
aI12467946
aI11920157
aI17428563
aI20442744
aI17712621
as(S'plin'
p2821
S'bone density'
p2822
tp2823
(lp2824
I16786163
as(S'cdh1'
p2825
S'esophageal adenocarcinoma'
p2826
tp2827
(lp2828
I20453000
as(S'chrna4'
p2829
g809
tp2830
(lp2831
I12887442
aI16205844
aI17385675
aI19577488
as(S'maoa'
p2832
S'46, xx disorders of sex development'
p2833
tp2834
(lp2835
I18474080
aI18639608
as(S'nat2'
p2836
S'sulphamethoxazole hypersensitivity'
p2837
tp2838
(lp2839
I11186133
as(S'tyms'
p2840
S'esophageal neoplasms'
p2841
tp2842
(lp2843
I19339270
aI17684410
as(S'fbn1'
p2844
g381
tp2845
(lp2846
I18278837
as(S'abcg8'
p2847
S'cholesterol, ldl'
p2848
tp2849
(lp2850
I15520451
aI15262185
aI15175352
aI19060906
as(S'xrcc1'
p2851
S'sister-chromatid exchanges'
p2852
tp2853
(lp2854
I12160895
as(S'myh7'
p2855
S'cardiomegaly'
p2856
tp2857
(lp2858
I18403758
as(S'bche'
p2859
S'organophosphate toxicity'
p2860
tp2861
(lp2862
I16105444
aI16824336
as(S'kras'
p2863
S'abnormalities, multiple'
p2864
tp2865
(lp2866
I19206169
as(S'tlr5'
p2867
g213
tp2868
(lp2869
I19638314
as(S'pnmt'
p2870
S'adult adhd'
p2871
tp2872
(lp2873
I16894395
as(S'dmd'
p2874
S'dilated cardiomyopathy'
p2875
tp2876
(lp2877
I12359139
as(S'tbp'
p2878
S'combined vocal and multiple motor'
p2879
tp2880
(lp2881
I16389595
as(S'epor'
p2882
S'familial erythrocytosis'
p2883
tp2884
(lp2885
I9192789
as(S'actn3'
p2886
S'human elite athletic performance'
p2887
tp2888
(lp2889
I12879365
as(S'tlr4'
p2890
S'preterm delivery'
p2891
tp2892
(lp2893
I15516360
as(S'pdcd1'
p2894
S"bird fancier's lung"
p2895
tp2896
(lp2897
I20447384
as(S'tbx21'
p2898
g591
tp2899
(lp2900
I18045485
as(S'fads3'
p2901
S'hdl cholesterol'
p2902
tp2903
(lp2904
I19060911
aI19060906
as(S'drp2'
p2905
S'schizophrenia'
p2906
tp2907
(lp2908
I15858820
aI12679234
aI15027329
as(S'usp46'
p2909
S'schizophrenia'
p2910
tp2911
(lp2912
I20111060
as(S'pah'
p2913
S'galactosemia'
p2914
tp2915
(lp2916
I11678552
as(S'cyp2c9'
p2917
S'glyburide pharmacokinetics'
p2918
tp2919
(lp2920
I16198656
as(S'sftpb'
p2921
S'ards'
p2922
tp2923
(lp2924
I11076040
as(S'hsd17b1'
p2925
S'testicular germ cell tumor'
p2926
tp2927
(lp2928
I19776291
as(S'ccr5'
p2929
S'hiv infections'
p2930
tp2931
(lp2932
I18498240
aI18648518
aI18781860
aI18855658
aI18928397
aI19260142
aI19433914
aI19460331
aI20050936
aI20206716
aI20420684
aI20411675
aI20442634
aI20530467
aI20518834
aI21288827
aI11181160
aI11177400
aI11125899
aI11274729
aI11196681
aI11398114
aI11873082
aI11698699
aI11595595
aI12136242
aI12426633
aI12514416
aI12509908
aI12599073
aI12798016
aI14636691
aI15307921
aI15793360
aI16100775
aI15958832
aI16233918
aI16312181
aI16270124
aI16960780
aI17301575
aI17462514
aI18197127
aI18255039
as(S'mthfr'
p2933
S'diabetes mellitus, type 2'
p2934
tp2935
(lp2936
I18591889
aI19484352
aI19598005
aI20390408
aI12901638
aI14727014
aI17174622
aI17712717
aI18280442
as(S'il4'
p2937
S'schistosoma mansoni infection'
p2938
tp2939
(lp2940
I15644127
as(S'il6'
p2941
S'bone density'
p2942
tp2943
(lp2944
I11212160
aI11355017
aI12843190
aI15917161
aI12757654
aI17046587
aI17331078
as(S'xrcc1'
p2945
S'benzene haematotoxicity'
p2946
tp2947
(lp2948
I19773279
as(S'slc6a4'
p2949
S'dance performance'
p2950
tp2951
(lp2952
I16205790
as(S'ins'
p2953
S'diabetes, gestational insulin'
p2954
tp2955
(lp2956
I17011062
as(S'hspa1l'
p2957
S'aids-related opportunistic infections'
p2958
tp2959
(lp2960
I19374512
as(S'il6'
p2961
S'renal allograft outcome'
p2962
tp2963
(lp2964
I15603866
aI11544427
as(S'nod2'
p2965
S'spondylarthritis'
p2966
tp2967
(lp2968
I12115195
as(S'tlr2'
p2969
g459
tp2970
(lp2971
I20337891
as(S'loc123688'
p2972
g723
tp2973
(lp2974
I19789337
aI19733931
aI18780872
aI20554942
as(S'cyp1a2'
p2975
S'endometrial neoplasms'
p2976
tp2977
(lp2978
I18318428
as(S'slc6a4'
p2979
S'depression depressive disorder, major'
p2980
tp2981
(lp2982
I16464506
as(S'mmp3'
p2983
S'restenosis'
p2984
tp2985
(lp2986
I11977998
aI11977998
as(S'cilp2'
p2987
S'cholesterol, ldl'
p2988
tp2989
(lp2990
I18193044
as(S'mmab'
p2991
g1929
tp2992
(lp2993
I20160193
as(S'lce3b'
p2994
S'diabetes mellitus, type 2'
p2995
tp2996
(lp2997
I20016497
aI19169253
aI20331852
aI20624365
as(S'ran'
p2998
g125
tp2999
(lp3000
I19047128
as(S'cyp2c19'
p3001
S'sulfone metabolism'
p3002
tp3003
(lp3004
I12623762
as(S'cd14'
p3005
S'appendicitis'
p3006
tp3007
(lp3008
I15273551
as(S'nos3'
p3009
S'oxidative stress'
p3010
tp3011
(lp3012
I18720901
as(S'ercc6'
p3013
S'nucleotide excision repair'
p3014
tp3015
(lp3016
I19878615
as(S'ptpn11'
p3017
g607
tp3018
(lp3019
I19077116
as(S'tmprss6'
p3020
S'iron status and erythrocyte volume'
p3021
tp3022
(lp3023
I19820699
as(S'hcrt'
p3024
S'disorders of excessive somnolence'
p3025
tp3026
(lp3027
I11723284
as(S'adrb1'
p3028
S'idiopathic orthostatic intolerance'
p3029
tp3030
(lp3031
I15719258
as(S'foxa3'
p3032
S'hepatic cyp3a4 expression'
p3033
tp3034
(lp3035
I19934400
as(S'nat2'
p3036
S'breast neoplasms'
p3037
tp3038
(lp3039
I12037388
as(S'nos3'
p3040
S'coronary blood flow'
p3041
tp3042
(lp3043
I11668050
as(S'ifngr2'
p3044
g1658
tp3045
(lp3046
I11240951
aI10491309
aI11240951
aI19247692
as(S'nudt1'
p3047
S'oral cancer'
p3048
tp3049
(lp3050
I17207658
as(S'gdap1'
p3051
S'charcot-marie-tooth disease'
p3052
tp3053
(lp3054
I15019704
as(S'lox'
p3055
S'squamous cell carcinoma'
p3056
tp3057
(lp3058
I18764858
as(S'ppia'
p3059
g205
tp3060
(lp3061
I17590083
as(S'ccr5'
p3062
S'hiv disease progression'
p3063
tp3064
(lp3065
I16286055
aI11175286
aI11709782
aI11988632
aI11752157
as(S'kras'
p3066
S'gastrointestinal stromal tumors'
p3067
tp3068
(lp3069
I19561230
as(S'psmb9'
p3070
S'alzheimers disease'
p3071
tp3072
(lp3073
I12209365
as(S'agt'
p3074
S'breast neoplasms'
p3075
tp3076
(lp3077
I16823505
as(S'tmprss6'
p3078
S'mean corpuscular volume'
p3079
tp3080
(lp3081
I19862010
as(S'runx3'
p3082
g113
tp3083
(lp3084
I20190752
aI20190752
as(S'dgat2'
p3085
S'hepatitis'
p3086
tp3087
(lp3088
I18980578
as(S'csf2'
p3089
S'atopic dermatitis.'
p3090
tp3091
(lp3092
I13679820
as(S'hla-drb1'
p3093
S'ossification of posterior longitudinal ligament'
p3094
tp3095
(lp3096
I16019679
aI19565552
aI12477229
aI15191530
aI16249228
as(S'tmeff2'
p3097
g2282
tp3098
(lp3099
I20379614
as(S'gch1'
p3100
S'tetrahydrobiopterin metabolic disorders'
p3101
tp3102
(lp3103
I17407085
as(S'sparc'
p3104
S'type 2 diabetes'
p3105
tp3106
(lp3107
I20628086
as(S'fgfr4'
p3108
S'high-grade soft tissue sarcoma'
p3109
tp3110
(lp3111
I14601095
as(S'nfkb1'
p3112
S'hodgkin disease'
p3113
tp3114
(lp3115
I19223558
as(S'mbd4'
p3116
S'esophageal cancer'
p3117
tp3118
(lp3119
I15205355
as(S'adh1c'
p3120
S'squamous cell carcinoma'
p3121
tp3122
(lp3123
I11303599
as(S'ace'
p3124
S'left-ventricular hypertrophy'
p3125
tp3126
(lp3127
I10657713
as(S'mut'
p3128
g1075
tp3129
(lp3130
I14654360
as(S'il1b'
p3131
S'cirrhosis'
p3132
tp3133
(lp3134
I15220553
as(S'f5'
p3135
S'pregnancy loss, recurrent'
p3136
tp3137
(lp3138
I15630502
aI16170289
as(S'hsp90ab1'
p3139
g1658
tp3140
(lp3141
I19254810
as(S'cntn1'
p3142
S'aorta'
p3143
tp3144
(lp3145
I17903303
as(S'hnmt'
p3146
S'bronchial hyperresponsiveness'
p3147
tp3148
(lp3149
I15693910
as(S'cyp1a2'
p3150
S'chronic benzene poisoning'
p3151
tp3152
(lp3153
I18784359
as(S'tlr9'
p3154
g70
tp3155
(lp3156
I17258734
aI19796535
aI17854429
as(S'ptgs2'
p3157
S'bladder cancer'
p3158
tp3159
(lp3160
I15596291
aI18381966
aI19455278
aI20627335
as(S'il1rn'
p3161
S'hodgkin disease'
p3162
tp3163
(lp3164
I17327408
as(S'irak1'
p3165
g217
tp3166
(lp3167
I19329491
aI18050247
as(S'kir2ds2'
p3168
g169
tp3169
(lp3170
I14514651
aI15699512
as(S'cyp3a5'
p3171
S'cyclospoine pharmacokinetics'
p3172
tp3173
(lp3174
I15592326
as(S'pten'
p3175
S'breast cancer prostate cancer'
p3176
tp3177
(lp3178
I16702386
as(S'ptch'
p3179
S'carcinoma, basal cell'
p3180
tp3181
(lp3182
I20346027
as(S'kcna5'
p3183
S'hypertension'
p3184
tp3185
(lp3186
I20556823
as(S'irgm'
p3187
g70
tp3188
(lp3189
I19750224
aI17554261
aI21049557
as(S'mthfr'
p3190
S'bladder cancer leukemia lung cancer'
p3191
tp3192
(lp3193
I16956909
as(S'tlr2'
p3194
S'atopic dermatitis'
p3195
tp3196
(lp3197
I15007351
aI19849713
as(S'cdh13'
p3198
S'rheumatoid arthritis'
p3199
tp3200
(lp3201
I19165155
as(S'cdkal1'
p3202
S'diabetes, type 2'
p3203
tp3204
(lp3205
I17460697
aI17463248
aI17463249
aI18437351
aI18426861
aI18477659
aI18469204
aI18461161
aI18544707
aI18516622
aI18633108
aI19002430
aI18991055
aI18984664
aI19020324
aI19008344
aI19082521
aI19033397
aI19228808
aI19225753
aI19258404
aI19247372
aI19401414
aI19502414
aI19455305
aI19592620
aI19622614
aI19741467
aI19933996
aI19892838
aI19862325
aI19808892
as(S'smn1'
p3206
S'als/amyotrophic lateral sclerosis'
p3207
tp3208
(lp3209
I16093455
aI16931506
as(S'csf2'
p3210
S'asthma atopy'
p3211
tp3212
(lp3213
I17362254
as(S'mme'
p3214
S'cerebral amyloid angiopathy.'
p3215
tp3216
(lp3217
I12754344
as(S'dmpk'
p3218
g455
tp3219
(lp3220
I15981568
as(S'hsd3b1'
p3221
S'body mass'
p3222
tp3223
(lp3224
I16353595
as(S'htr2c'
p3225
g217
tp3226
(lp3227
I19142110
aI20092861
as(S'mmp3'
p3228
S'astrocytoma'
p3229
tp3230
(lp3231
I17672933
as(S'slc6a3'
p3232
g758
tp3233
(lp3234
I15148564
aI17621383
aI16702979
aI18973248
aI19621370
aI19844206
aI19827313
aI20391341
aI18181793
as(S'traf1'
p3235
S'arthritis, rheumatoid'
p3236
tp3237
(lp3238
I18434327
aI18432273
aI18625278
aI19116907
aI18794853
aI19180477
aI19741008
aI20353580
aI20205706
aI20439292
aI20498205
aI20822712
aI17880261
aI17804836
as(S'armetl1'
p3239
S'alcoholism'
p3240
tp3241
(lp3242
I19429035
as(S'tor1a'
p3243
S'idiopathic torsion dystonia'
p3244
tp3245
(lp3246
I1347197
as(S'lpl'
p3247
S'cholesterol, total'
p3248
tp3249
(lp3250
I12042669
as(S'capn10'
p3251
S'glucose'
p3252
tp3253
(lp3254
I12133483
aI15926113
aI11756349
as(S'hla-e'
p3255
S'coronary aneurysm'
p3256
tp3257
(lp3258
I19180512
as(S'gnrh1'
p3259
S'hypogonadism'
p3260
tp3261
(lp3262
I19567835
as(S'il6'
p3263
S'hypertension'
p3264
tp3265
(lp3266
I11196657
aI15303107
aI15760495
aI15787640
aI15985484
aI18922529
aI19077731
aI19272152
aI19288024
aI19452524
aI19747414
aI19828434
aI19804633
aI19876004
aI19447023
aI20132806
aI20113359
aI20157327
aI20156727
aI20603037
aI20608170
aI12214260
aI12560873
aI12846758
aI14684705
aI14680981
aI15223609
aI15306845
aI15292466
aI15336915
aI15331795
aI15364891
aI15543342
aI15831362
aI16029943
aI16179573
aI16323614
aI16493118
aI17092389
aI17298885
aI17428355
aI17508011
aI17785926
aI17998015
aI18163209
as(S'tpk1'
p3267
S'birth weight'
p3268
tp3269
(lp3270
I17295612
as(S'cd14'
p3271
g1156
tp3272
(lp3273
I14517492
as(S'pecam1'
p3274
g1658
tp3275
(lp3276
I20370486
as(S'mirn146a'
p3277
S'ovarian cancer'
p3278
tp3279
(lp3280
I18660546
aI20810544
as(S'hla-b'
p3281
S'diffuse panbonchiolitis'
p3282
tp3283
(lp3284
I18846964
as(S'gstm1'
p3285
S'aflatoxin-related hepatocarcinogenesis'
p3286
tp3287
(lp3288
I11470760
as(S'rara'
p3289
S'schizophrenia'
p3290
tp3291
(lp3292
I15635645
aI15635645
as(S'pear1'
p3293
S'platelet signaling'
p3294
tp3295
(lp3296
I19429868
as(S'cyp2d6'
p3297
S'leukemia, childhood acute lymphoblastic'
p3298
tp3299
(lp3300
I11895912
as(S'fcmd'
p3301
S'muscular dystrophy'
p3302
tp3303
(lp3304
I15103718
as(S'il4'
p3305
g125
tp3306
(lp3307
I17327605
aI17678726
as(g3289
g2871
tp3308
(lp3309
I15635645
as(S'fbn1'
p3310
S'hypoxia'
p3311
tp3312
(lp3313
I11315929
aI11315929
as(S'nos1'
p3314
S'eo'
p3315
tp3316
(lp3317
I11668616
aI11668616
as(S'apoe'
p3318
g291
tp3319
(lp3320
I19888660
aI15942165
as(S'grem1'
p3321
S'type 2 diabetes'
p3322
tp3323
(lp3324
I19577778
as(S'cckar'
p3325
S"parkinson's disease"
p3326
tp3327
(lp3328
I15313848
as(S'ar'
p3329
S'androgen-independent prostate cancer'
p3330
tp3331
(lp3332
I12860943
as(S'htr2c'
p3333
S'agitation'
p3334
tp3335
(lp3336
I18562401
aI18205001
as(S'fraxa'
p3337
g1541
tp3338
(lp3339
I17383248
as(S'tyr'
p3340
S'oculocutaneous albinism'
p3341
tp3342
(lp3343
I18463683
aI19865097
as(S'irf4'
p3344
g2647
tp3345
(lp3346
I19710684
aI20602913
as(S'tcf1'
p3347
S'diabetes, gestational'
p3348
tp3349
(lp3350
I16752173
as(S'nos2a'
p3351
S'malaria susceptibility'
p3352
tp3353
(lp3354
I10558957
as(S'mmp9'
p3355
S'atherosclerotic lesions'
p3356
tp3357
(lp3358
I11557670
as(S'hbb'
p3359
S'beta-thalassemia'
p3360
tp3361
(lp3362
I11132233
aI18339318
aI18654889
aI18603555
aI18694524
aI18951049
aI18932071
aI19122960
aI19460936
aI19954365
as(S'ccl2'
p3363
g482
tp3364
(lp3365
I20497022
as(S'il23r'
p3366
g591
tp3367
(lp3368
I18045485
as(S'tph2'
p3369
S'depressive disorder, major'
p3370
tp3371
(lp3372
I15124006
aI15052272
as(S'mtr'
p3373
S"non-hodgkin's lymphoma"
p3374
tp3375
(lp3376
I16365025
as(S'cyp3a5'
p3377
S'repaglinide pharmacokinetics'
p3378
tp3379
(lp3380
I15961978
as(S'apoc3'
p3381
S'lipid levels'
p3382
tp3383
(lp3384
I19403283
as(S'vcam1'
p3385
g145
tp3386
(lp3387
I14615367
as(S'xrcc1'
p3388
S'cancer'
p3389
tp3390
(lp3391
I9542526
aI12960109
as(S'hla-c'
p3392
S'liver transplant'
p3393
tp3394
(lp3395
I17207712
as(S'sele'
p3396
g2420
tp3397
(lp3398
I16974056
aI19578796
as(S'inhba'
p3399
g315
tp3400
(lp3401
I21102462
as(S'tp53'
p3402
S'pregnancy complications, infectious'
p3403
tp3404
(lp3405
I19940524
as(S'cyp11b2'
p3406
S'arterial wall changes'
p3407
tp3408
(lp3409
I15614025
as(S'cdkal1'
p3410
S'body mass index'
p3411
tp3412
(lp3413
I22344219
aI22344221
as(S'adh1b'
p3414
S'cirrhosis, alcoholic'
p3415
tp3416
(lp3417
I11748356
as(S'pon1'
p3418
S'pon1 activity'
p3419
tp3420
(lp3421
I15924216
aI15767359
aI15922013
aI16835048
as(S'agtr1'
p3422
S'glaucoma, primary open-angle'
p3423
tp3424
(lp3425
I12556231
aI15914614
as(S'ccr5'
p3426
g655
tp3427
(lp3428
I16196460
aI20628649
aI17672867
as(S'tlr4'
p3429
S'pancreatic necrosis pancreatitis, acute'
p3430
tp3431
(lp3432
I17414051
as(S'tcn2'
p3433
S'cerebrovascular disease, ischemic'
p3434
tp3435
(lp3436
I16894458
as(S'abcc6'
p3437
S'coronary artery disease'
p3438
tp3439
(lp3440
I19929409
aI20855565
as(S'cyp2c19'
p3441
g1188
tp3442
(lp3443
I19499406
aI20113968
as(S'gstp1'
p3444
S'skin cancer, non-melanoma'
p3445
tp3446
(lp3447
I15459020
aI17083362
aI17505575
as(S'mmp12'
p3448
S'chorioamnionitis'
p3449
tp3450
(lp3451
I20452482
aI20673868
as(S'tnf'
p3452
S"rheiter's syndrome"
p3453
tp3454
(lp3455
I12687213
as(S'casp8'
p3456
g1658
tp3457
(lp3458
I18823309
as(S'lepr'
p3459
S'bone density'
p3460
tp3461
(lp3462
I15130412
aI12457453
aI16645018
as(S'ccl21'
p3463
S'rheumatoid arthritis'
p3464
tp3465
(lp3466
I19435719
aI18794853
as(S'abcb1'
p3467
S'anticoagulant complications'
p3468
tp3469
(lp3470
I15588114
aI14676821
as(S'sult1a2'
p3471
S'cancer'
p3472
tp3473
(lp3474
I16133548
as(S'comt'
p3475
g2282
tp3476
(lp3477
I18499348
aI15941945
aI16395295
aI16876132
aI17206495
aI17548664
as(S'hd'
p3478
S'schizophrenia'
p3479
tp3480
(lp3481
I11121205
as(S'il1b'
p3482
g3094
tp3483
(lp3484
I18484691
aI12468823
aI16508980
aI18063673
as(S'cdkn2bas'
p3485
S'anril expression'
p3486
tp3487
(lp3488
I20386740
as(S'irs2'
p3489
S'atherosclerosis'
p3490
tp3491
(lp3492
I18506362
as(S'htra1'
p3493
g455
tp3494
(lp3495
I17053108
aI17053109
aI17568988
aI18436811
aI18682812
aI18682806
aI18806297
aI18718667
aI19065273
aI19043567
aI19026638
aI19001225
aI19202148
aI19187590
aI19491722
aI19375943
aI19259132
aI19255159
aI19796758
aI20346514
aI20132989
aI20381870
aI20538655
aI20456446
aI20576771
aI20888482
aI20678803
aI20664794
aI21060055
aI21031019
aI21197116
aI17679948
aI18079691
aI17884985
aI18206206
aI18164066
aI18161619
aI18316707
aI18207215
aI17053108
as(S'drb1'
p3496
S'schizophrenia'
p3497
tp3498
(lp3499
I9713902
as(S'htr1a'
p3500
S'depressive disorder, major'
p3501
tp3502
(lp3503
I15728438
aI15052272
aI16302021
aI15539859
aI15458611
aI16458487
as(S'ppt1'
p3504
S'occipital lobe'
p3505
tp3506
(lp3507
I17903297
as(S'msh2'
p3508
S'fallopian cancer'
p3509
tp3510
(lp3511
I14574163
as(S'apoc3'
p3512
S'cholesterol, hdl triglycerides'
p3513
tp3514
(lp3515
I16702309
aI16781717
aI17367769
as(S'cyp3a4'
p3516
S'9-hydroxyrisperidone'
p3517
tp3518
(lp3519
I12202670
as(S'tlr2'
p3520
S'lung disease, mycobacteria'
p3521
tp3522
(lp3523
I16829623
as(S'cyp17a1'
p3524
S'androstenedione'
p3525
tp3526
(lp3527
I12385014
as(S'cyp2e1'
p3528
S'dna damage, biomarkers of'
p3529
tp3530
(lp3531
I11535253
as(S'cd14'
p3532
S'arthritis, rheumatoid'
p3533
tp3534
(lp3535
I18565258
aI17273008
aI20109750
as(S'faah'
p3536
S'atherosclerosis'
p3537
tp3538
(lp3539
I20631561
as(S'kir3ds1'
p3540
g169
tp3541
(lp3542
I16698433
as(S'nfkb1'
p3543
S'lupus erythematosus'
p3544
tp3545
(lp3546
I15713218
as(S'f9'
p3547
S'ahg deficiency disease'
p3548
tp3549
(lp3550
I19686262
as(S'itga2'
p3551
S'platelet aggregation'
p3552
tp3553
(lp3554
I16214444
aI15205592
as(S'cenpe'
p3555
g723
tp3556
(lp3557
I17268814
as(S'slc47a1'
p3558
S'renal clearance of metformin'
p3559
tp3560
(lp3561
I19536068
as(S'il1b'
p3562
S'acquired immunodeficiency syndrome'
p3563
tp3564
(lp3565
I18631256
aI14982742
aI17083033
as(S'chi3l1'
p3566
S'hepatitis c, chronic'
p3567
tp3568
(lp3569
I19070929
as(S'cd38'
p3570
g2571
tp3571
(lp3572
I20435366
as(S'kns2'
p3573
g10
tp3574
(lp3575
I15364413
as(S'pik3ca'
p3576
S'breast neoplasms'
p3577
tp3578
(lp3579
I18679714
aI19027487
aI20551053
aI17947469
as(S'pim1'
p3580
g723
tp3581
(lp3582
I19688129
as(S'tnfrsf1a'
p3583
S'nephropathy in other diseases'
p3584
tp3585
(lp3586
I15787661
as(S'prl'
p3587
g2571
tp3588
(lp3589
I18207134
as(S'ppargc1a'
p3590
S'bipolar disorder schizophrenia'
p3591
tp3592
(lp3593
I17457313
as(S'ctla4'
p3594
S'cervical cancer'
p3595
tp3596
(lp3597
I17341658
aI18337305
aI19959217
as(S'slc22a4'
p3598
g1658
tp3599
(lp3600
I16255050
as(S'ace'
p3601
g611
tp3602
(lp3603
I12122980
aI12360613
aI11774217
aI9733227
aI9677696
aI8903617
aI16603315
aI18503143
aI19039225
aI19073835
aI14763962
as(S'eif2b2'
p3604
g1391
tp3605
(lp3606
I18632786
as(S'cyp2c8'
p3607
S'oral antidiabetic pharacokinetics'
p3608
tp3609
(lp3610
I16372821
as(S'hla-dqb1'
p3611
S'leukemia, chronic lymphocytic'
p3612
tp3613
(lp3614
I11291046
as(S'cyp2c9'
p3615
S'nonsteroidal anti-inflammatory response'
p3616
tp3617
(lp3618
I12603175
as(S'drd2'
p3619
S'atrophy'
p3620
tp3621
(lp3622
I18698520
as(S'apoe'
p3623
S'familial dysbetalipoproteinemia'
p3624
tp3625
(lp3626
I1864973
as(S'atxn3'
p3627
g2879
tp3628
(lp3629
I16389595
as(S'acsl4'
p3630
g758
tp3631
(lp3632
I19346733
as(S'mmp1'
p3633
g615
tp3634
(lp3635
I17901377
aI18097620
as(S'dtnbp1'
p3636
S'hallucinations'
p3637
tp3638
(lp3639
I18411704
aI17555717
as(S'rage'
p3640
S'nephropathy'
p3641
tp3642
(lp3643
I11334430
as(S'xrcc4'
p3644
S'glucose'
p3645
tp3646
(lp3647
I11062157
as(S'fgf10'
p3648
g2879
tp3649
(lp3650
I18454440
as(S'rgs6'
p3651
S'bladder cancer'
p3652
tp3653
(lp3654
I15375002
as(S'ednrb'
p3655
S'arterial stiffness blood pressure, arterial'
p3656
tp3657
(lp3658
I16567585
as(S'ahsg'
p3659
g10
tp3660
(lp3661
I16002217
as(S'cyp2d6'
p3662
g121
tp3663
(lp3664
I10206080
aI9682264
as(S'runx1'
p3665
S'rheumatoid arthritis'
p3666
tp3667
(lp3668
I16821265
aI16652416
as(S'supt3h'
p3669
S'body height'
p3670
tp3671
(lp3672
I19893584
as(S'cyp2a6'
p3673
S'nicotine dependence smoking behavior'
p3674
tp3675
(lp3676
I16720336
as(S'il8ra'
p3677
g1658
tp3678
(lp3679
I15772681
as(S'hp'
p3680
S'decreases transcriptional activity and responsiveness to interleukin-6'
p3681
tp3682
(lp3683
I8387722
as(S'ccr5'
p3684
g2420
tp3685
(lp3686
I19196047
aI20203694
aI15610230
aI16395252
as(S'mthfr'
p3687
S'transcobalamin'
p3688
tp3689
(lp3690
I15941899
as(S'tnfrsf1b'
p3691
S'myelopathy, htlv-1 associated'
p3692
tp3693
(lp3694
I11163081
as(S'abcg2'
p3695
S'immunosuppression, chemotherapy induced'
p3696
tp3697
(lp3698
I17434155
as(S'drd4'
p3699
S'craving'
p3700
tp3701
(lp3702
I17309802
as(S'kiaa1217'
p3703
S'intervertebral disk degeneration'
p3704
tp3705
(lp3706
I19338451
as(S'ttf1'
p3707
S"hirschsprung's disease"
p3708
tp3709
(lp3710
I15548547
as(S'ldlr'
p3711
S'mild familial hypercholesterolaemia'
p3712
tp3713
(lp3714
I8589690
as(S'cyp4f2'
p3715
S'vitamin e'
p3716
tp3717
(lp3718
I21729881
as(S'hmox1'
p3719
S'aging'
p3720
tp3721
(lp3722
I18524839
as(S'cyp3a4'
p3723
S'premature ovarian failure'
p3724
tp3725
(lp3726
I16306861
as(S'clec10a'
p3727
S'hallucinations'
p3728
tp3729
(lp3730
I19776380
as(S'cd1a'
p3731
S'pulmonary disease, mycobacterium malmoense'
p3732
tp3733
(lp3734
I11580851
as(S'kir2ds1'
p3735
g2995
tp3736
(lp3737
I16185272
aI15310528
aI15140215
aI16829306
aI18681957
aI18643961
as(S'dhodh'
p3738
S'arthritis, rheumatoid'
p3739
tp3740
(lp3741
I19207032
as(S'xrcc4'
p3742
g415
tp3743
(lp3744
I18410587
aI19116388
aI18164646
as(S'lgals1'
p3745
S'autoimmune diseases'
p3746
tp3747
(lp3748
I20728947
as(S'gria3'
p3749
S'schizophrenia'
p3750
tp3751
(lp3752
I18163426
as(S'il18r1'
p3753
g315
tp3754
(lp3755
I20816195
as(S'gsta1'
p3756
S'liver disease, alcoholic'
p3757
tp3758
(lp3759
I15525789
as(S'muc4'
p3760
S'atopy'
p3761
tp3762
(lp3763
I11062147
as(S'tph1'
p3764
S'risk-taking behavior in a gambling task'
p3765
tp3766
(lp3767
I20043001
as(S'cnr2'
p3768
g1445
tp3769
(lp3770
I16204352
aI19442614
aI19565271
as(S'fabp2'
p3771
S'nephropathy, diabetic'
p3772
tp3773
(lp3774
I16249461
as(S'lepr'
p3775
S'adenocarcinoma'
p3776
tp3777
(lp3778
I18654948
as(S'negr1'
p3779
S'type 2 diabetes'
p3780
tp3781
(lp3782
I20571754
as(S'gstm1'
p3783
S'2-thiothiazolidine-4-carboxylic acid levels'
p3784
tp3785
(lp3786
I17333241
as(S'chat'
p3787
S'alzheimers disease'
p3788
tp3789
(lp3790
I16424819
as(S'esr2'
p3791
g977
tp3792
(lp3793
I18304720
as(S'mamdc1'
p3794
S'neuroticism'
p3795
tp3796
(lp3797
I18762592
as(S'slc6a3'
p3798
S'bladder cancer'
p3799
tp3800
(lp3801
I19692168
as(S'timeless'
p3802
S'atopy'
p3803
tp3804
(lp3805
I14637143
as(S'casr'
p3806
S'calculi'
p3807
tp3808
(lp3809
I18680227
aI18938753
as(S'mttp'
p3810
S'insulin'
p3811
tp3812
(lp3813
I15547295
aI11792722
as(S'amt'
p3814
S'hyperglycinemia, nonketotic'
p3815
tp3816
(lp3817
I16450403
as(S'calcoco1'
p3818
g723
tp3819
(lp3820
I19183483
as(S'serpine1'
p3821
S'heart disease, ischemic'
p3822
tp3823
(lp3824
I16353042
aI15121769
as(S'cyp11b2'
p3825
S'aortic stiffness'
p3826
tp3827
(lp3828
I11288810
as(S'hla-b'
p3829
S'stroke, ischemic'
p3830
tp3831
(lp3832
I12373032
as(S'vdr'
p3833
g2995
tp3834
(lp3835
I12071154
aI20601302
aI20716226
aI11204438
aI12111344
aI12413773
aI12753258
aI12968672
aI15861036
aI15864137
aI16252240
aI16350715
aI16769262
aI16908916
aI17371163
aI17280526
as(S'rapgef3'
p3836
g758
tp3837
(lp3838
I19475578
as(S'pcaf'
p3839
g770
tp3840
(lp3841
I21062767
as(S'htr2a'
p3842
S'weight gain, antipsychotic drug-induced'
p3843
tp3844
(lp3845
I16215954
as(S'ar'
p3846
S'atherosclerosis'
p3847
tp3848
(lp3849
I15890890
as(S'cbs'
p3850
g821
tp3851
(lp3852
I18620331
aI18799873
as(S'runx3'
p3853
g3094
tp3854
(lp3855
I21743469
as(S'gpi'
p3856
g509
tp3857
(lp3858
I20845477
as(S'xrcc2'
p3859
S'pancreatic cancer'
p3860
tp3861
(lp3862
I16540687
as(S'htra1'
p3863
g381
tp3864
(lp3865
I21067572
as(S'agt'
p3866
S'glaucoma, primary open-angle'
p3867
tp3868
(lp3869
I12556231
aI15914614
as(S'taok1'
p3870
S'mean platelet volume'
p3871
tp3872
(lp3873
I19110211
aI19110211
as(S'gstm5'
p3874
g723
tp3875
(lp3876
I19856098
as(S'xrcc5'
p3877
S'cancer'
p3878
tp3879
(lp3880
I9542526
aI9542526
as(S'npy'
p3881
S'lipoprotein, ldl'
p3882
tp3883
(lp3884
I15201542
as(S'ankk1'
p3885
S'nicotine dependence'
p3886
tp3887
(lp3888
I17085484
as(S'cd14'
p3889
S'organ failure sepsis'
p3890
tp3891
(lp3892
I16509825
as(S'c7'
p3893
g217
tp3894
(lp3895
I10496188
aI19221116
as(S'oprm1'
p3896
S'acth'
p3897
tp3898
(lp3899
I12627468
as(S'srebf2'
p3900
g770
tp3901
(lp3902
I15547298
as(S'tnf'
p3903
S'human longevity'
p3904
tp3905
(lp3906
I11640949
as(S'igf2bp3'
p3907
g381
tp3908
(lp3909
I20627640
as(S'pck2'
p3910
S'diabetes, type 2'
p3911
tp3912
(lp3913
I12916001
aI12916001
aI16132948
as(S'runx2'
p3914
S'bone size'
p3915
tp3916
(lp3917
I16198163
as(S'fut2'
p3918
S'gastritis, chronic atrophic'
p3919
tp3920
(lp3921
I12673421
as(S'tp73l'
p3922
S'adenocarcinoma'
p3923
tp3924
(lp3925
I20871597
as(S'hla-drb1'
p3926
S'diabetes, gestational'
p3927
tp3928
(lp3929
I12133402
aI11082517
aI12133402
aI16277897
aI12392858
aI11082517
aI12133402
aI12133402
as(S'tnfsf11'
p3930
g2294
tp3931
(lp3932
I16953816
as(S'serpinf1'
p3933
S'microangiopathy, diabetic'
p3934
tp3935
(lp3936
I12837042
as(S'ace'
p3937
g3620
tp3938
(lp3939
I20085788
aI15806540
aI16442232
as(S'ccr3'
p3940
S'bone density'
p3941
tp3942
(lp3943
I15607028
as(S'brca2'
p3944
S'eye neoplasms'
p3945
tp3946
(lp3947
I12385017
as(S'gata3'
p3948
g113
tp3949
(lp3950
I18410415
as(S'folh1'
p3951
S'cardiovascular disease'
p3952
tp3953
(lp3954
I12204797
as(S'cd14'
p3955
S'necrotizing enterocolitis'
p3956
tp3957
(lp3958
I16385250
as(S'il1rn'
p3959
S'hyperhomocysteinemia'
p3960
tp3961
(lp3962
I16573560
aI18354254
aI19132772
aI19607807
aI19638314
aI19664671
aI19889076
aI20136959
aI20482626
aI21178102
aI12239970
aI12165808
aI12854083
aI14633943
aI15030461
aI15551344
aI15885804
aI16820326
aI17235630
aI17309751
aI17640324
aI17846855
aI18086767
as(S'mttp'
p3963
S'diabetes, type 2'
p3964
tp3965
(lp3966
I12818411
aI15028851
aI12775233
as(S'adra2c'
p3967
g758
tp3968
(lp3969
I17223428
aI18947427
aI18308161
as(S'mthfr'
p3970
S'antineoplastic toxicity'
p3971
tp3972
(lp3973
I15735113
as(S'tnf'
p3974
S'polycystic ovaries'
p3975
tp3976
(lp3977
I10050654
as(S'il1b'
p3978
g209
tp3979
(lp3980
I19811434
aI17964974
as(S'cyp2d6'
p3981
S'schizophrenia'
p3982
tp3983
(lp3984
I12629505
aI7712118
aI8723057
aI9564684
aI18520596
aI18597648
aI19000940
aI19387994
aI19387424
aI19440082
aI19521114
aI19761369
aI20041956
aI19997080
aI20599499
aI11702057
aI15861039
aI17325735
as(S'atm'
p3985
S'hypertension'
p3986
tp3987
(lp3988
I11165203
as(S'col4a1'
p3989
g2294
tp3990
(lp3991
I15081423
aI15081423
as(S'mthfr'
p3992
S'proliferative diabetic retinopathy.'
p3993
tp3994
(lp3995
I10765003
as(S'nos3'
p3996
S'congestive heart failure'
p3997
tp3998
(lp3999
I12668492
aI15846275
as(S'cdc123'
p4000
S'diabetes, type 2'
p4001
tp4002
(lp4003
I18567820
aI18714373
aI19455301
aI19670153
aI19502414
aI19789630
aI19741467
aI19933996
aI19833888
as(S'ercc1'
p4004
g2647
tp4005
(lp4006
I15709194
aI17210993
aI19116388
aI19257887
aI20128036
as(S'kir2dl2'
p4007
S'cell transformation, neoplastic'
p4008
tp4009
(lp4010
I19934297
as(S'slc2a10'
p4011
S'diabetes, type 2'
p4012
tp4013
(lp4014
I12941788
aI15936967
aI12941788
aI16336637
aI16586067
as(S'inpp1'
p4015
S'post-traumatic stress disorder suicide'
p4016
tp4017
(lp4018
I17570738
as(S'ifng'
p4019
g291
tp4020
(lp4021
I18632425
aI18680515
aI19408823
as(S'tbx1'
p4022
S'heart septal defects, ventricular'
p4023
tp4024
(lp4025
I19948535
as(S'tnf'
p4026
S'cytokine response'
p4027
tp4028
(lp4029
I15699425
as(S'cx3cr1'
p4030
S'rheumatoid arthritis'
p4031
tp4032
(lp4033
I12889997
aI18617779
as(S'ccl5'
p4034
S'brain neoplasms'
p4035
tp4036
(lp4037
I11929421
as(S'il15'
p4038
S'smoking'
p4039
tp4040
(lp4041
I19188921
as(S'slc6a4'
p4042
g1460
tp4043
(lp4044
I18270821
as(S'bcl2'
p4045
S'myeloid leukemia'
p4046
tp4047
(lp4048
I19520430
as(S'ifng'
p4049
S'esophageal cancer'
p4050
tp4051
(lp4052
I19733878
as(S'ppara'
p4053
S'cholesterol, ldl'
p4054
tp4055
(lp4056
I12006394
aI15699244
aI16285997
as(S'il4'
p4057
S'bronchiolitis, viral'
p4058
tp4059
(lp4060
I19131452
as(S'gnb3'
p4061
S'hypertension and left ventricular mass'
p4062
tp4063
(lp4064
I11775125
as(S'hla-drb3'
p4065
S'idiopathic thrombotic thrombocytopenic purpura'
p4066
tp4067
(lp4068
I19922436
as(S'cubn'
p4069
g770
tp4070
(lp4071
I20855565
as(S'topbp1'
p4072
g711
tp4073
(lp4074
I18006695
as(S'cyp2d6'
p4075
S'tamoxifen, prophylactic effect of'
p4076
tp4077
(lp4078
I16361630
as(S'lrrtm3'
p4079
g10
tp4080
(lp4081
I19105203
as(S'hs3st2'
p4082
S'schizophrenia'
p4083
tp4084
(lp4085
I19850283
as(S'itpa'
p4086
S'deficiency'
p4087
tp4088
(lp4089
I15946879
as(S'col5a1'
p4090
S'achilles tendon pathology'
p4091
tp4092
(lp4093
I16430677
as(S'thada'
p4094
S'type 2 diabetes'
p4095
tp4096
(lp4097
I18372903
as(S'lsp1'
p4098
g615
tp4099
(lp4100
I17827388
as(S'icam5'
p4101
g30
tp4102
(lp4103
I16733712
aI17293864
as(S'gstt1'
p4104
S'arsenic'
p4105
tp4106
(lp4107
I18839526
as(S'htr2c'
p4108
S'suicide'
p4109
tp4110
(lp4111
I12627464
aI12111480
aI8823764
aI10758249
aI16382194
aI18504633
aI18715570
aI19496825
aI20494452
as(S'ins'
p4112
S'body mass'
p4113
tp4114
(lp4115
I15705917
aI14693412
aI14749349
as(S'slc6a3'
p4116
S'obsessive- compulsive disorder'
p4117
tp4118
(lp4119
I18094849
as(S'lta'
p4120
S'urinary tract infections after renal transplantation'
p4121
tp4122
(lp4123
I11965041
as(S'il1r1'
p4124
S'alcoholism'
p4125
tp4126
(lp4127
I15797878
as(S'hspa1l'
p4128
S'high-altitude illness'
p4129
tp4130
(lp4131
I16333988
as(S'rit2'
p4132
S'schizophrenia'
p4133
tp4134
(lp4135
I20489179
as(S'cckar'
p4136
S'depressive disorder, major'
p4137
tp4138
(lp4139
I15927089
as(S'slc6a4'
p4140
S'obsessive compulsive disorder'
p4141
tp4142
(lp4143
I15005715
aI15172105
aI16220023
aI12082589
aI11920862
aI11602033
aI16443280
aI16583440
aI16642437
aI17241828
aI17291658
aI17375136
aI17503984
aI17174018
aI18603313
aI19806148
as(S'xrcc5'
p4144
g2011
tp4145
(lp4146
I17901044
as(S'fut2'
p4147
S'cholesterol'
p4148
tp4149
(lp4150
I20686565
as(S'gsta4'
p4151
S'carcinoma, basal cell'
p4152
tp4153
(lp4154
I20966433
as(S'nlrp3'
p4155
g113
tp4156
(lp4157
I20370570
aI18263599
as(S'egfr'
p4158
S'gastric cancer'
p4159
tp4160
(lp4161
I19362747
aI20047592
as(S'btnl2'
p4162
g217
tp4163
(lp4164
I16321988
as(S'bmp4'
p4165
g459
tp4166
(lp4167
I19453255
as(S'disc1'
p4168
S'schizophrenia sustained attention'
p4169
tp4170
(lp4171
I16997000
as(S'parp1'
p4172
S'endolymphatic hydrops'
p4173
tp4174
(lp4175
I19863315
as(S'maoa'
p4176
S'alcoholism personality disorders'
p4177
tp4178
(lp4179
I17592478
as(S'hla-drb1'
p4180
S'hantavirus infections'
p4181
tp4182
(lp4183
I17989838
as(S'nos3'
p4184
g1075
tp4185
(lp4186
I17479212
aI18855535
aI19838007
aI20186148
as(S'pdc'
p4187
S'retinal dystrophies'
p4188
tp4189
(lp4190
I14758335
aI14758335
as(S'mmp'
p4191
S'serum matrix metalloproteinase'
p4192
tp4193
(lp4194
I20031604
as(S'alox5ap'
p4195
S'atherosclerosis, coronary'
p4196
tp4197
(lp4198
I17505527
as(S'ercc5'
p4199
S'leukemia, acute myeloblastic'
p4200
tp4201
(lp4202
I16507781
as(S'hla-a'
p4203
S'stem cell transplantation outcome'
p4204
tp4205
(lp4206
I12010826
as(S'ugt2b7'
p4207
S'morphine response'
p4208
tp4209
(lp4210
I16103897
aI16580900
as(S'tsc2'
p4211
S'tuberous sclerosis phenotypes'
p4212
tp4213
(lp4214
I9412784
as(S'sart1'
p4215
g30
tp4216
(lp4217
I18374504
as(S'vegfa'
p4218
g70
tp4219
(lp4220
I19054372
as(S'slc6a3'
p4221
S'cognitive function'
p4222
tp4223
(lp4224
I16712949
as(S'egfr'
p4225
S'f-18 fluorodeoxyglucose'
p4226
tp4227
(lp4228
I19130320
as(g2165
g1430
tp4229
(lp4230
I15004750
as(S'cfh'
p4231
S'haemolytic-uraemic syndrome'
p4232
tp4233
(lp4234
I20106822
aI20513133
aI20595690
as(S'fabp2'
p4235
S'atherosclerosis, coronary'
p4236
tp4237
(lp4238
I15135268
as(S'il6'
p4239
S'bone mass'
p4240
tp4241
(lp4242
I12240899
as(S'cyp2e1'
p4243
S'head and neck cancer'
p4244
tp4245
(lp4246
I12063626
aI12548461
aI17611777
aI19334053
aI19887496
as(S'mmp3'
p4247
S'coronary aneurysm'
p4248
tp4249
(lp4250
I20827277
as(S'pon1'
p4251
S'betaine choline creatinine cystathionine cysteine dimethyglycine folate homocysteine methionine methylmalonic acid vitamin b12 vitamin b2 vitamin b6'
p4252
tp4253
(lp4254
I17436311
as(S'nfkbia'
p4255
S'respiratory syncytial virus bronchiolitis'
p4256
tp4257
(lp4258
I19258923
as(S'cd226'
p4259
S'anti-neutrophil cytoplasmic antibody-associated vasculitis'
p4260
tp4261
(lp4262
I19951419
as(S'tnf'
p4263
S'alcohol abuse'
p4264
tp4265
(lp4266
I15902922
as(S'gstt1'
p4267
S"pneumoconiosis, coal workers'"
p4268
tp4269
(lp4270
I11977425
as(S'vamp8'
p4271
g770
tp4272
(lp4273
I20533276
aI18073581
as(S'cyp1a1'
p4274
S'cyp1a1 genetic polymorphisms'
p4275
tp4276
(lp4277
I12100112
as(S'pnoc'
p4278
S'schizophrenia'
p4279
tp4280
(lp4281
I11436130
aI11501941
aI11436130
aI11501941
as(S'mthfr'
p4282
S"late-onset alzheimer's disease."
p4283
tp4284
(lp4285
I15123333
as(S'mthfr'
p4286
S'thrombotic risk factors'
p4287
tp4288
(lp4289
I19520684
as(S'brca1'
p4290
S'benzene toxicity'
p4291
tp4292
(lp4293
I16728435
as(S'mthfr'
p4294
g2420
tp4295
(lp4296
I18974580
aI19272686
aI11054348
aI11420199
aI11431185
aI11484165
aI11592445
aI11979347
aI12218328
aI12421498
aI12612987
aI12644913
aI12776270
aI12911562
aI16158041
aI16391331
aI17805475
aI17966140
as(S'sult1a1'
p4297
g579
tp4298
(lp4299
I12468438
as(S'ccl5'
p4300
S'sclerosis, systemic'
p4301
tp4302
(lp4303
I17599774
as(S'esr1'
p4304
S'estradiol'
p4305
tp4306
(lp4307
I15668497
aI15552843
aI16949384
as(S'pou2af1'
p4308
g723
tp4309
(lp4310
I18753146
as(S'drd4'
p4311
S'risperidone and perospirone'
p4312
tp4313
(lp4314
I20046399
as(S'oprm1'
p4315
S'pain tolerance, and opioid addiction'
p4316
tp4317
(lp4318
I12898579
as(S'ace'
p4319
S'connective tissue diseases'
p4320
tp4321
(lp4322
I19332265
aI19527514
as(S'ms4a2'
p4323
g1658
tp4324
(lp4325
I15479187
aI12422339
aI10427478
aI9817697
aI9611078
aI11142503
aI10712341
aI10712341
aI10887316
aI10712341
aI11739132
aI9611078
aI10224406
aI10806171
aI16839401
aI17178032
aI18379861
aI18691306
aI18931892
aI19247692
aI19218813
aI19288130
aI20395963
aI20085599
as(S'vegfa'
p4326
S'retinopathy of prematurity'
p4327
tp4328
(lp4329
I15161830
aI16877277
aI17119993
aI18568888
as(S'grm7'
p4330
S'seizures, alcohol withdrawal-induced'
p4331
tp4332
(lp4333
I11912074
as(S'ror2'
p4334
S'bone density'
p4335
tp4336
(lp4337
I17619808
as(S'cdkn2a'
p4338
S'nevi, total'
p4339
tp4340
(lp4341
I11008905
as(S'agt'
p4342
S'type 2 diabetic nephropathy'
p4343
tp4344
(lp4345
I19108684
as(S'cyp3a4'
p4346
S'schizophrenia'
p4347
tp4348
(lp4349
I19395426
aI19591893
as(S'acp1'
p4350
S'atherosclerosis, coronary'
p4351
tp4352
(lp4353
I11771313
as(S'slc22a12'
p4354
S'kidney disease'
p4355
tp4356
(lp4357
I15327384
as(S'ung'
p4358
S'longevity'
p4359
tp4360
(lp4361
I20800603
as(S'hspa1b'
p4362
g758
tp4363
(lp4364
I18759004
as(S'slc6a4'
p4365
S'amnesia, retrograde'
p4366
tp4367
(lp4368
I18614671
as(S'hla-c'
p4369
S'kidney transplant complications'
p4370
tp4371
(lp4372
I14551034
as(S'arts-1'
p4373
g3094
tp4374
(lp4375
I21068102
as(S'slc6a4'
p4376
S'pathological gambling'
p4377
tp4378
(lp4379
I10471073
as(S'ifngr1'
p4380
S'h. pylori infection'
p4381
tp4382
(lp4383
I12516030
as(S'itih4'
p4384
S'cholesterol'
p4385
tp4386
(lp4387
I14661079
as(S'il1r2'
p4388
S'thromboembolism, venous'
p4389
tp4390
(lp4391
I17413037
as(S'mat1a'
p4392
g1075
tp4393
(lp4394
I19161160
as(S'htr2a'
p4395
S'body mass'
p4396
tp4397
(lp4398
I16258205
as(S'ccl21'
p4399
S'autoimmune diseases'
p4400
tp4401
(lp4402
I20797713
as(S'il12b'
p4403
g70
tp4404
(lp4405
I15483662
aI17504509
aI18522869
aI20544370
aI17932439
as(S'fcgr3a'
p4406
g363
tp4407
(lp4408
I16846526
as(S'ptgs2'
p4409
g2294
tp4410
(lp4411
I19236532
aI18173398
as(S'hla-drb4'
p4412
g3025
tp4413
(lp4414
I17002906
as(S'apoe'
p4415
S"alzheimer's disease apolipoprotein e levels"
p4416
tp4417
(lp4418
I17430597
as(S'agt'
p4419
S'hypertriglyceridemic waist'
p4420
tp4421
(lp4422
I16276364
as(S'itgae'
p4423
S'brain ischemia'
p4424
tp4425
(lp4426
I19023099
as(S'nckap5'
p4427
S'mental disorders'
p4428
tp4429
(lp4430
I20889312
as(S'slc11a1'
p4431
S'arthritis, rheumatoid'
p4432
tp4433
(lp4434
I19055603
aI20587610
aI16125248
as(S'nfkb1'
p4435
S'hepatitis c, chronic'
p4436
tp4437
(lp4438
I19797428
as(S'nat2'
p4439
S'alcoholism'
p4440
tp4441
(lp4442
I11858170
as(S'cd14'
p4443
S'il-1beta'
p4444
tp4445
(lp4446
I12101079
as(S'cyp2c19'
p4447
S'fatal drug intoxication'
p4448
tp4449
(lp4450
I15349706
as(S'chrm1'
p4451
g193
tp4452
(lp4453
I17373692
as(S'lpl'
p4454
S'familial combined hyperlipoproteinemia'
p4455
tp4456
(lp4457
I9026529
as(S'blm'
p4458
S'neoplasms'
p4459
tp4460
(lp4461
I19432957
as(S'pi3'
p4462
g1526
tp4463
(lp4464
I19251943
as(S'gsta1'
p4465
S'isothiocyanates'
p4466
tp4467
(lp4468
I17374652
as(S'tp53'
p4469
S'bacterial infections'
p4470
tp4471
(lp4472
I18799058
as(S'msx1'
p4473
S'cleft palate'
p4474
tp4475
(lp4476
I12652527
as(g152
S'atherosclerosis'
p4477
tp4478
(lp4479
I11532900
aI17082760
aI18615095
aI19372452
as(S'comt'
p4480
S'panic disorder'
p4481
tp4482
(lp4483
I11772685
aI18440204
aI18832011
aI19429001
aI19900710
aI12359690
aI15203287
aI16525418
aI17357147
as(S'il6'
p4484
g2011
tp4485
(lp4486
I10848780
aI12815949
aI12938195
aI14522096
aI18997828
aI19124510
aI19406470
aI19734419
aI14756669
aI17119059
aI18041006
as(S'maoa'
p4487
S'mood disorder'
p4488
tp4489
(lp4490
I16319504
aI11715502
aI10686545
as(S'mbp'
p4491
S'host defence'
p4492
tp4493
(lp4494
I7487919
as(S'grin1'
p4495
S'alcoholism-related traits'
p4496
tp4497
(lp4498
I14573320
as(S'ace'
p4499
S'acidosis'
p4500
tp4501
(lp4502
I17123697
as(S'cyp3a5'
p4503
S'simvastatin pharmacokinetics'
p4504
tp4505
(lp4506
I17192506
as(S'gstm1'
p4507
S'arsenic metabolism'
p4508
tp4509
(lp4510
I17450230
aI19914269
as(S'cyp3a5'
p4511
S'genitourinary neoplasms'
p4512
tp4513
(lp4514
I17701008
as(S'ace'
p4515
S'mood disorder'
p4516
tp4517
(lp4518
I11145009
as(S'tap2'
p4519
S'urogenital disorders'
p4520
tp4521
(lp4522
I12687213
as(S'lipg'
p4523
g770
tp4524
(lp4525
I19411665
aI20466371
aI20691829
aI20602615
aI20855565
aI17986713
as(S'ccr5'
p4526
S'asthma or atopy'
p4527
tp4528
(lp4529
I11081537
as(S'mmp9'
p4530
S'angina'
p4531
tp4532
(lp4533
I12205736
as(S'ab116074'
p4534
S'factor vii'
p4535
tp4536
(lp4537
I17903294
as(S'ugt2b7'
p4538
S'endometrial neoplasms'
p4539
tp4540
(lp4541
I19352303
as(S'cyp3a5'
p4542
S'verapamil pharmacokinetics'
p4543
tp4544
(lp4545
I17443134
as(S'irak1'
p4546
S'c-reactive protein'
p4547
tp4548
(lp4549
I16907704
aI17382928
as(S'mgrn1'
p4550
g2282
tp4551
(lp4552
I20379614
as(S'mtnr1b'
p4553
S'impaired fasting glycemia and type 2 diabetes'
p4554
tp4555
(lp4556
I19324940
as(S'mark3'
p4557
g315
tp4558
(lp4559
I20534768
as(S'adrb1'
p4560
S'left ventricular ejection fraction troponin, cardiac'
p4561
tp4562
(lp4563
I16728691
as(S'ascl1'
p4564
S'schizophrenia'
p4565
tp4566
(lp4567
I16899352
as(S'ercc2'
p4568
S'hyperkeratosis'
p4569
tp4570
(lp4571
I12749816
as(S'tp53'
p4572
S'aggressive behavior of chondrosarcoma'
p4573
tp4574
(lp4575
I9840532
as(S'gc'
p4576
S'diabetes, gestational'
p4577
tp4578
(lp4579
I20541252
as(S'ahr'
p4580
g2011
tp4581
(lp4582
I19736056
as(S'kiss1r'
p4583
S'hypogonadotropic hypogonadism'
p4584
tp4585
(lp4586
I19489874
as(S'lipc'
p4587
S'increased concentration of hdl-c and decreased promoter activity'
p4588
tp4589
(lp4590
I12364543
as(S'lepr'
p4591
S'c-reactive protein'
p4592
tp4593
(lp4594
I19567438
aI18439548
aI19567438
as(S'dhfr'
p4595
S'folate homocysteine'
p4596
tp4597
(lp4598
I16969375
as(S'cyp19a1'
p4599
S'menarche'
p4600
tp4601
(lp4602
I16782804
as(S'comt'
p4603
S'bulimia'
p4604
tp4605
(lp4606
I19447357
as(S'alox5ap'
p4607
g1658
tp4608
(lp4609
I12911785
aI14749922
aI15784112
aI15876305
aI12911785
aI17460547
aI18547289
aI19130089
aI19524426
aI20067482
aI20376802
aI20128419
aI20810156
aI20592751
as(S'cfb'
p4610
g121
tp4611
(lp4612
I3741506
as(S'gstm1'
p4613
S"pneumoconiosis, coal workers'"
p4614
tp4615
(lp4616
I11977425
as(S'mef2a'
p4617
S'myocardial infarct'
p4618
tp4619
(lp4620
I15496429
aI15841171
aI15958500
aI16195615
as(S'dmpk'
p4621
S"huntington's disease"
p4622
tp4623
(lp4624
I11781699
as(S'gstt1'
p4625
S'sex hormones'
p4626
tp4627
(lp4628
I11389067
as(S'apoc3'
p4629
S'hyperlipidemia'
p4630
tp4631
(lp4632
I15809899
as(S'tcap'
p4633
g723
tp4634
(lp4635
I17117180
as(S'padi4'
p4636
g113
tp4637
(lp4638
I15883854
aI18462498
aI18576335
aI18764812
aI18633125
aI19332633
aI19199253
aI20537173
aI17980669
aI17888206
aI18087673
as(S'wt1'
p4639
g711
tp4640
(lp4641
I18618575
aI20332316
as(S'tap2'
p4642
S'dengue'
p4643
tp4644
(lp4645
I18433405
as(S'ccdc102b'
p4646
S'cholesterol, ldl'
p4647
tp4648
(lp4649
I17903299
as(S'itpa'
p4650
g579
tp4651
(lp4652
I15571266
aI15167706
as(S'fcgr3a'
p4653
S'lupus erythematosus'
p4654
tp4655
(lp4656
I15153543
aI14651519
aI16716162
as(S'tacr1'
p4657
S'panic disorder'
p4658
tp4659
(lp4660
I18452185
as(S'vhl'
p4661
g133
tp4662
(lp4663
I18551016
aI19336503
aI20208144
as(S'gstm1'
p4664
S'leukemia, childhood acute lymphoblastic'
p4665
tp4666
(lp4667
I11895912
as(S'cyp2c19'
p4668
S'cyp2c19 activity'
p4669
tp4670
(lp4671
I12142727
aI12222750
as(S'mlh1'
p4672
S'breast neoplasms'
p4673
tp4674
(lp4675
I18990028
aI19688281
as(S'xrcc1'
p4676
S'bladder cancer'
p4677
tp4678
(lp4679
I15298955
aI11304692
aI12223443
aI16308313
aI16311243
aI16308313
aI16284380
aI14625810
aI16343742
aI14688016
aI17203305
aI17214369
aI17220334
aI17438703
aI18336890
aI18365755
aI18630471
aI18765423
aI19266243
aI19350405
aI19414392
aI20061190
aI20218899
aI20514470
aI11219769
aI14652287
aI15746160
aI16880786
aI17425776
aI17898541
aI18272472
as(S'gstp1'
p4680
S'1-hydroxypyrene, urinary'
p4681
tp4682
(lp4683
I15355699
aI17498780
as(S'masp2'
p4684
g2833
tp4685
(lp4686
I16029433
as(S'dpysl2'
p4687
g193
tp4688
(lp4689
I16380905
as(S'il1a'
p4690
g3746
tp4691
(lp4692
I11777547
aI17964974
as(S'aldoa'
p4693
S'anemia'
p4694
tp4695
(lp4696
I14615364
as(S'hspa1a'
p4697
S'acute mountain sickness'
p4698
tp4699
(lp4700
I15748471
as(S'tnf'
p4701
S"graves' disease"
p4702
tp4703
(lp4704
I16313297
aI17348243
as(S'gas6'
p4705
g821
tp4706
(lp4707
I19369636
as(S'mmp2'
p4708
S'gastric cardia adenocarcinoma'
p4709
tp4710
(lp4711
I12873995
aI12873995
as(S'frem2'
p4712
S'cholesterol, hdl'
p4713
tp4714
(lp4715
I17903299
as(S'hspg2'
p4716
g821
tp4717
(lp4718
I19506372
as(S'ptgs1'
p4719
g730
tp4720
(lp4721
I18705313
as(S'cyp1a1'
p4722
S'psoriatic arthritis'
p4723
tp4724
(lp4725
I15124938
as(S'lta'
p4726
S'pregnancy loss, recurrent'
p4727
tp4728
(lp4729
I15811521
as(S'cyp3a5'
p4730
g407
tp4731
(lp4732
I17979523
as(S'cav2'
p4733
S'pr interval'
p4734
tp4735
(lp4736
I20062060
as(S'flt3'
p4737
g1460
tp4738
(lp4739
I17763464
as(S'ngfb'
p4740
g2871
tp4741
(lp4742
I17192954
as(S'adm'
p4743
g1892
tp4744
(lp4745
I21085059
as(S'serpine1'
p4746
S'cardiovascular disease'
p4747
tp4748
(lp4749
I14605330
aI12911596
as(S'casp3'
p4750
g1334
tp4751
(lp4752
I17534194
as(S'mmp2'
p4753
S'carcinoma'
p4754
tp4755
(lp4756
I20113256
as(S'tyms'
p4757
S'breast cancer estrogen progesterone'
p4758
tp4759
(lp4760
I16328059
as(S'comt'
p4761
S'menarche'
p4762
tp4763
(lp4764
I12574216
as(S'cyp2c19'
p4765
g3311
tp4766
(lp4767
I15090156
as(S'ednrb'
p4768
S'small-vessel disease'
p4769
tp4770
(lp4771
I16002759
as(S'tnf'
p4772
S'actinic prurigo'
p4773
tp4774
(lp4775
I11722460
as(S'ppara'
p4776
S'glucose'
p4777
tp4778
(lp4779
I14677049
as(S'il4'
p4780
S'acute graft-versus-host disease'
p4781
tp4782
(lp4783
I12420205
as(S'tap1'
p4784
S'adenocarcinoma'
p4785
tp4786
(lp4787
I19202550
as(g610
g2833
tp4788
(lp4789
I15935385
as(S'gfra3'
p4790
S"hirschsprung's disease"
p4791
tp4792
(lp4793
I12624147
as(S'ndp'
p4794
S'classical ocular phenotype'
p4795
tp4796
(lp4797
I9010869
as(S'slc6a4'
p4798
S'cardiac death'
p4799
tp4800
(lp4801
I16209960
as(S'ghrl'
p4802
S'adiposity'
p4803
tp4804
(lp4805
I19077438
as(S'pnpla4'
p4806
g655
tp4807
(lp4808
I19390624
as(S'mapt'
p4809
S'parkinsons disease'
p4810
tp4811
(lp4812
I16315267
as(S'wisp1'
p4813
S'hypertension'
p4814
tp4815
(lp4816
I19282865
as(S'clcnkb'
p4817
S'blood pressure, arterial hypertension'
p4818
tp4819
(lp4820
I17137217
aI17143181
as(S'xirp2'
p4821
g2571
tp4822
(lp4823
I16205742
as(S'lmna'
p4824
S'insulin'
p4825
tp4826
(lp4827
I15636422
as(S'grin2b'
p4828
S'cirrhosis, alcoholic'
p4829
tp4830
(lp4831
I15542698
as(S'il13'
p4832
S'vaccine response'
p4833
tp4834
(lp4835
I16914241
as(S'lrrk2'
p4836
S"parkinson's disease"
p4837
tp4838
(lp4839
I16157901
aI16157901
aI16157908
aI16157909
aI16102903
aI16115731
aI15680457
aI15925109
aI15955629
aI15852371
aI15852371
aI16149095
aI16467219
aI16511860
aI16614029
aI16633828
aI16643318
aI16728648
aI16750929
aI16758483
aI16817197
aI17019612
aI17020475
aI17044089
aI17050822
aI17080443
aI17083102
aI17097110
aI17115391
aI17116211
aI17149721
aI17179858
aI17187665
aI17216639
aI17222106
aI17235449
aI17253937
aI17324517
aI17353388
aI17388990
aI17419834
aI17469194
aI17470139
aI17540608
aI17614198
aI16533964
aI16622859
aI17052850
aI17352347
aI17427941
aI18378882
aI18353371
aI18337586
aI18435766
aI18434642
aI18412265
aI18379513
aI18484993
aI18464276
aI18539534
aI18523869
aI18523722
aI18486522
aI18665323
aI18649400
aI18752982
aI18716801
aI18704525
aI18927607
aI18923807
aI18809839
aI18805725
aI18986508
aI18981379
aI18980856
aI18973254
aI19205068
aI19041274
aI19020907
aI19353692
aI19343804
aI19330201
aI19224617
aI19412725
aI19405094
aI19357115
aI19489756
aI19473361
aI19458969
aI19527940
aI19513331
aI19726410
aI19699188
aI19672984
aI19854095
aI19847307
aI19800393
aI20008657
aI20004703
aI19915576
aI19915575
aI19915576
aI20186690
aI20182943
aI18621566
aI20483373
aI20473834
aI20443975
aI20697102
aI20673920
aI20669299
aI20722494
aI20721916
aI20721913
aI20933457
aI20818610
aI21292315
aI17622782
aI17803033
aI17803032
aI17938369
aI17880562
aI17868389
aI18213618
aI18211709
aI18201824
aI17960808
aI18265005
as(S'psen1'
p4840
S'attention deficit disorder'
p4841
tp4842
(lp4843
I12925374
as(S'kl'
p4844
g42
tp4845
(lp4846
I17270470
as(S'htr1b'
p4847
S'panic disorder'
p4848
tp4849
(lp4850
I15670397
as(S'lta'
p4851
S'restenosis'
p4852
tp4853
(lp4854
I12082592
as(S'tpte2'
p4855
g711
tp4856
(lp4857
I21105107
as(S'tph1'
p4858
S'musical aptitude'
p4859
tp4860
(lp4861
I19461995
as(S'furin'
p4862
g723
tp4863
(lp4864
I19998449
as(S'nphs1'
p4865
S'kidney diseases'
p4866
tp4867
(lp4868
I17211152
aI17371932
aI19406966
aI19520069
as(S'wt1'
p4869
g2011
tp4870
(lp4871
I18559874
aI19171881
aI19536888
aI19221039
aI20368538
aI20368469
aI20678218
aI20644087
aI20592250
as(S'apex1'
p4872
S'radiotherapy response'
p4873
tp4874
(lp4875
I14643949
as(S'phactr1'
p4876
g90
tp4877
(lp4878
I19198609
as(S'znf498'
p4879
S'anthropometric traits'
p4880
tp4881
(lp4882
I19260139
aI19260139
aI19260139
aI19260139
as(S'htr3b'
p4883
S'fibromyalgia'
p4884
tp4885
(lp4886
I15293096
as(S'il1a'
p4887
S'sclerosis, systemic'
p4888
tp4889
(lp4890
I17444587
as(S'slc6a4'
p4891
g770
tp4892
(lp4893
I17728423
as(S'hdac4'
p4894
S'schizophrenia'
p4895
tp4896
(lp4897
I20471694
as(S'adh1c'
p4898
S'medicamentosa-like dermatitis, trichloroethylene'
p4899
tp4900
(lp4901
I16758956
as(S'braf'
p4902
S'rectal cancer'
p4903
tp4904
(lp4905
I19903786
aI19913317
as(S'tor1a'
p4906
S'brain lesions or calcifications'
p4907
tp4908
(lp4909
I15293281
as(S'uvrag'
p4910
g973
tp4911
(lp4912
I20163458
as(S'il20'
p4913
S'hepatitis c'
p4914
tp4915
(lp4916
I15815689
as(S'hk2'
p4917
g509
tp4918
(lp4919
I20845477
as(S'lipc'
p4920
S'alcohol'
p4921
tp4922
(lp4923
I18510853
as(S'acsl5'
p4924
S'overweight'
p4925
tp4926
(lp4927
I17495181
as(S'lrrk2'
p4928
S"essential tremor parkinson's disease"
p4929
tp4930
(lp4931
I17482357
as(S'sat1'
p4932
S'suicide'
p4933
tp4934
(lp4935
I19446796
aI19851986
as(S'hmg20a'
p4936
S'diabetes mellitus, type 2'
p4937
tp4938
(lp4939
I21874001
as(S'tyms'
p4940
g125
tp4941
(lp4942
I20310006
as(S'kdm4c'
p4943
S'esophageal neoplasms'
p4944
tp4945
(lp4946
I19339270
as(S'pdcd1'
p4947
g1188
tp4948
(lp4949
I19263877
as(S'hla-dpb1'
p4950
S'thrombosis, deep vein'
p4951
tp4952
(lp4953
I15640334
as(S'cd19'
p4954
g121
tp4955
(lp4956
I12215898
aI12215898
aI12215898
as(S'esr1'
p4957
S'prostate cancer.'
p4958
tp4959
(lp4960
I12891629
as(S'ccl2'
p4961
S'schizophrenia'
p4962
tp4963
(lp4964
I15389752
aI15167690
aI19450143
as(S'hla-a'
p4965
S'pulmonary thromboembolism'
p4966
tp4967
(lp4968
I15640334
as(S'hoxb5'
p4969
g315
tp4970
(lp4971
I22484627
as(S'sod2'
p4972
S'blindness'
p4973
tp4974
(lp4975
I19753309
as(S'rit1'
p4976
S'conduct disorder'
p4977
tp4978
(lp4979
I18846501
as(S'pcna'
p4980
S'bladder cancer'
p4981
tp4982
(lp4983
I17203305
as(S'cyp1a2'
p4984
S'biliary tract neoplasms'
p4985
tp4986
(lp4987
I15901993
as(S'lpl'
p4988
S'left ventricular growth'
p4989
tp4990
(lp4991
I16416313
as(S'kir2ds4'
p4992
S'bladder cancer colorectal cancer laryngeal cancer'
p4993
tp4994
(lp4995
I17493145
as(S'mchr2'
p4996
g193
tp4997
(lp4998
I19927306
as(S'itgb7'
p4999
g1658
tp5000
(lp5001
I15663557
as(S'mln'
p5002
S'pyloric stenosis, hypertrophic'
p5003
tp5004
(lp5005
I18358279
as(S'crp'
p5006
S'c-reactive protein cardiovascular disease'
p5007
tp5008
(lp5009
I17185152
as(S'il18rap'
p5010
g113
tp5011
(lp5012
I18805825
aI19103669
aI19542083
aI18311140
as(S'mthfr'
p5013
S'hypertension, pulmonary'
p5014
tp5015
(lp5016
I18387654
aI19133039
aI19618008
aI12165282
aI12570104
aI15813553
aI17159337
aI17918782
aI18318759
as(S'cxcl12'
p5017
S'atherosclerosis'
p5018
tp5019
(lp5020
I16227796
as(S'ccl2'
p5021
S'atherosclerosis, coronary'
p5022
tp5023
(lp5024
I15302103
as(S'acadl'
p5025
g291
tp5026
(lp5027
I20037589
as(S'clptm1'
p5028
S'oral clefts'
p5029
tp5030
(lp5031
I19937600
as(S'xrcc4'
p5032
g723
tp5033
(lp5034
I12750264
aI11062157
aI16741161
aI16835328
aI16485136
aI18383855
aI19408343
aI19729825
aI20496165
aI20683005
as(S'htr1a'
p5035
S'disordered eating symptoms'
p5036
tp5037
(lp5038
I20454985
as(S'chka'
p5039
g173
tp5040
(lp5041
I20662904
as(S'npy2r'
p5042
S'diabetes, type 2'
p5043
tp5044
(lp5045
I17325259
as(S'npy1r'
p5046
g3637
tp5047
(lp5048
I19566775
as(S'mtr'
p5049
S'frequency of micronucleated lymphocytes'
p5050
tp5051
(lp5052
I19427504
as(S'mapt'
p5053
S"progressive supranuclear palsy richardson's syndrome"
p5054
tp5055
(lp5056
I17274033
as(S'npm1'
p5057
S'myeloid leukemia'
p5058
tp5059
(lp5060
I19379554
aI19557552
aI20001230
aI19965647
aI19865112
as(S'il4r'
p5061
S'allergic asthma'
p5062
tp5063
(lp5064
I15479272
as(S'fyn'
p5065
g10
tp5066
(lp5067
I15098360
aI15082191
as(S'gstt1'
p5068
S'chromosome abnormality'
p5069
tp5070
(lp5071
I12536075
aI15120911
aI16847185
as(S'mmp1'
p5072
S'chronic obstructive pulmonary disease/copd emphysema'
p5073
tp5074
(lp5075
I17363767
as(S'aldh2'
p5076
S'cholesterol gamma glutamyltranspeptidase triglycerides'
p5077
tp5078
(lp5079
I16847426
as(S'ace'
p5080
S'bleeding complications'
p5081
tp5082
(lp5083
I15892865
as(S'ace'
p5084
g528
tp5085
(lp5086
I15818445
as(S'nos3'
p5087
S'prostate cancer prostatic hyperplasia'
p5088
tp5089
(lp5090
I16458450
as(S'il6'
p5091
S'c-reactive protein cardiovascular disease risk factors insulin'
p5092
tp5093
(lp5094
I17335789
as(S'fas'
p5095
S'ulcerative colitis'
p5096
tp5097
(lp5098
I15637757
as(S'tnf'
p5099
S'paratyphoid fever'
p5100
tp5101
(lp5102
I11120931
aI17503085
as(S'abca2'
p5103
g10
tp5104
(lp5105
I16752360
aI18336955
as(S'maoa'
p5106
S'depressive disorder, major'
p5107
tp5108
(lp5109
I12502014
aI12555227
aI15956990
aI15564894
aI15486489
aI15052272
aI12886034
aI17192957
as(S'il4'
p5110
S'asthma bronchodilator response ige lung function'
p5111
tp5112
(lp5113
I17303794
as(S'tbx22'
p5114
S'cleft palate'
p5115
tp5116
(lp5117
I19648124
aI17868388
as(S'alox5'
p5118
S'glioblastoma'
p5119
tp5120
(lp5121
I19423540
as(S'gria1'
p5122
S'anthropometric traits'
p5123
tp5124
(lp5125
I19260139
as(S'htr2a'
p5126
S'brucellosis'
p5127
tp5128
(lp5129
I18334271
as(S'padi4'
p5130
S'polyarthritis'
p5131
tp5132
(lp5133
I15731287
as(S'ccl2'
p5134
S'asthma. asthma severity'
p5135
tp5136
(lp5137
I11544456
aI11544456
as(S'pparg'
p5138
S'nephropathy, diabetic'
p5139
tp5140
(lp5141
I11980626
as(S'aldh3a2'
p5142
S'sjogren-larsson syndrome'
p5143
tp5144
(lp5145
I9250352
aI7894487
as(S'abcg2'
p5146
g528
tp5147
(lp5148
I17494054
as(S'apob'
p5149
S'hypobetalipoproteinemia'
p5150
tp5151
(lp5152
I1940616
as(S'mtr'
p5153
g4973
tp5154
(lp5155
I18378576
aI18004208
as(S'il19'
p5156
S'palmoplanta pustulosis'
p5157
tp5158
(lp5159
I17263806
as(S'ccl2'
p5160
g117
tp5161
(lp5162
I16352737
aI19055601
aI19942750
aI19573434
aI20442634
aI17625600
as(S'ucp2'
p5163
S'cholesterol, hdl'
p5164
tp5165
(lp5166
I17512314
as(S'cyp27b1'
p5167
g591
tp5168
(lp5169
I18495603
as(S'th'
p5170
S'triglycerides'
p5171
tp5172
(lp5173
I14749349
as(S'il15'
p5174
S'lymphoma, follicular'
p5175
tp5176
(lp5177
I19176441
as(S'madd'
p5178
g770
tp5179
(lp5180
I19060911
as(S'nos1'
p5181
S'acute chest syndrome asthma'
p5182
tp5183
(lp5184
I17351927
as(S'casp3'
p5185
g217
tp5186
(lp5187
I19604093
as(S'adra2b'
p5188
S'insulin'
p5189
tp5190
(lp5191
I16269962
aI15309292
as(S'f8'
p5192
S'haemophilia a'
p5193
tp5194
(lp5195
I19817879
as(S's100a8'
p5196
g1430
tp5197
(lp5198
I21067798
as(S'itga2b'
p5199
S'atherosclerosis, coronary'
p5200
tp5201
(lp5202
I16248996
aI15227729
as(S'tfrc'
p5203
S'hepatocellular carcinoma'
p5204
tp5205
(lp5206
I11096344
as(S'hla-b'
p5207
S'hepatitis c'
p5208
tp5209
(lp5210
I12825172
aI15807454
aI18768435
aI20090103
aI20169624
aI20331378
aI14626512
aI17546694
as(S'cyp1a1'
p5211
S'anemia, iron deficiency'
p5212
tp5213
(lp5214
I12934333
as(S'bdnf'
p5215
S'diseases'
p5216
tp5217
(lp5218
I20346518
as(S'il1rn'
p5219
S"graves' disease"
p5220
tp5221
(lp5222
I9678537
aI17348243
as(S'gnb3'
p5223
S'diabetes, type 2'
p5224
tp5225
(lp5226
I16276364
aI15332573
aI15855877
aI12511541
aI10970984
aI9833937
aI12165748
aI19597293
as(S'agt'
p5227
g455
tp5228
(lp5229
I11341749
as(S'shbg'
p5230
S'sex homone-binding globulin'
p5231
tp5232
(lp5233
I16982738
as(S'il19'
p5234
g169
tp5235
(lp5236
I19430480
as(S'ace'
p5237
g524
tp5238
(lp5239
I12169829
aI16044138
as(S'daoa'
p5240
S'schizophrenia'
p5241
tp5242
(lp5243
I16842973
aI17006672
aI17055463
aI17408693
aI17492767
aI18541412
aI18423426
aI19237267
aI19560517
aI19439994
aI20483474
aI17629951
aI17627036
aI18198266
aI18023149
as(S'apoa4'
p5244
g770
tp5245
(lp5246
I16770585
as(S'esr1'
p5247
g10
tp5248
(lp5249
I11436125
aI11774719
aI11798902
aI10558867
aI10681083
aI17192785
aI18408366
aI18445666
aI18617186
aI18681789
aI19141999
aI19194457
aI19586561
aI20599431
aI11997270
aI15213208
aI15999471
aI16203927
aI16484614
aI16551651
aI16699281
aI16914837
aI17389465
aI17446729
aI18062975
aI21658281
as(S'blvra'
p5250
S'bilirubin'
p5251
tp5252
(lp5253
I19243019
as(S'slc27a1'
p5254
S'lipids'
p5255
tp5256
(lp5257
I12818409
as(S'rassf8'
p5258
g723
tp5259
(lp5260
I17194498
as(S'jak2'
p5261
g3094
tp5262
(lp5263
I20627814
aI21068102
as(S'pon1'
p5264
S'carotid intima-media thickness'
p5265
tp5266
(lp5267
I15576850
aI15087255
as(S'cyp1b1'
p5268
S'dhea'
p5269
tp5270
(lp5271
I12385014
as(S'tmem18'
p5272
S'body mass index'
p5273
tp5274
(lp5275
I19079261
as(S'hhex'
p5276
S'type 2 diabetes'
p5277
tp5278
(lp5279
I19401414
aI17463246
aI17463248
aI17463249
aI17293876
aI20215779
aI20424228
aI20509872
aI20503258
aI20490451
aI20550665
aI20597906
aI20580033
aI20802253
aI20927120
aI17928989
aI17827400
aI17804762
aI17786204
aI18210030
aI18162508
aI18039816
aI17971426
aI18231124
as(S'il1a'
p5280
g2374
tp5281
(lp5282
I12140751
as(S'mefv'
p5283
S'mediterranean fever'
p5284
tp5285
(lp5286
I11470495
as(S'ugt2b7'
p5287
S'mycophenolic acid'
p5288
tp5289
(lp5290
I18946804
as(S'ar'
p5291
S'stress (tako-tsubo) cardiomyopathy'
p5292
tp5293
(lp5294
I19167638
as(S'hla-b'
p5295
S'cytomegalovirus infections'
p5296
tp5297
(lp5298
I18544086
aI18976440
aI19000143
aI19032228
aI19159415
aI19539218
aI19654407
aI19924143
aI20173784
aI20335219
aI20536911
aI12437654
aI12651070
aI17726164
aI18093280
aI18315912
aI18332066
as(S'il1b'
p5299
S'leptin'
p5300
tp5301
(lp5302
I15787640
as(S'mfsd2'
p5303
g723
tp5304
(lp5305
I17145094
as(S'akt1'
p5306
S'bone mineral density'
p5307
tp5308
(lp5309
I19453261
as(S'cyp3a4'
p5310
S'cyp3a activity'
p5311
tp5312
(lp5313
I15114431
aI16243813
aI14580164
as(S'apoa5'
p5314
S'metabolic and cardiovascular traits'
p5315
tp5316
(lp5317
I19018513
as(S'ephx1'
p5318
S'alcohol abuse'
p5319
tp5320
(lp5321
I15654505
as(S'mmp12'
p5322
g1791
tp5323
(lp5324
I19056482
as(S'csmd2'
p5325
S'brain structure'
p5326
tp5327
(lp5328
I20171287
as(S'ghrl'
p5329
S'atherosclerosis, coronary myocardial infarct'
p5330
tp5331
(lp5332
I17324965
as(S'cdkn1b'
p5333
S'primary hyperparathyroidism'
p5334
tp5335
(lp5336
I19474519
as(S'xrcc1'
p5337
S'carcinoma, papillary'
p5338
tp5339
(lp5340
I19191745
aI19286843
as(S'il6'
p5341
S'il6 preterm delivery'
p5342
tp5343
(lp5344
I17346257
as(S'acsl4'
p5345
S'depressive disorder, major'
p5346
tp5347
(lp5348
I15108178
as(S'hla-drb1'
p5349
S'physiologic constitutions, traditional chinese med. defined'
p5350
tp5351
(lp5352
I17388766
as(S'hbs1l'
p5353
S'erythrocyte indices'
p5354
tp5355
(lp5356
I19862010
aI19862010
aI19862010
as(S'hla-drb4'
p5357
S'idiopathic thrombotic thrombocytopenic purpura'
p5358
tp5359
(lp5360
I19922436
as(S'kir2ds1'
p5361
g113
tp5362
(lp5363
I17882223
as(S'bdnf'
p5364
g3563
tp5365
(lp5366
I20491609
as(S'pon1'
p5367
S'cardiovascular risk'
p5368
tp5369
(lp5370
I19939821
as(S'mthfr'
p5371
S'longer telomeres at low folate nutritional status'
p5372
tp5373
(lp5374
I19458030
as(S'cdkn2a'
p5375
S'gastric adenocarcinomas'
p5376
tp5377
(lp5378
I12194996
as(S'rgs5'
p5379
g193
tp5380
(lp5381
I19488044
as(S'il1rn'
p5382
g809
tp5383
(lp5384
I19066720
as(S'pon1'
p5385
S'cerebral amyloid angiopathy.'
p5386
tp5387
(lp5388
I11935033
as(S'pln'
p5389
g10
tp5390
(lp5391
I21167350
as(S'cck'
p5392
S'mood disorder'
p5393
tp5394
(lp5395
I12116188
as(S'mgp'
p5396
S'lead toxicity'
p5397
tp5398
(lp5399
I14963895
aI19730704
as(S'bche'
p5400
S'atherosclerosis, coronary'
p5401
tp5402
(lp5403
I17275003
aI16298355
as(S'cetp'
p5404
S'cholesterol'
p5405
tp5406
(lp5407
I16039291
aI15952120
aI20066028
as(S'mbl2'
p5408
g615
tp5409
(lp5410
I19606686
aI18091754
as(S'atp2a3'
p5411
S'neoplasms'
p5412
tp5413
(lp5414
I19100511
as(S'casp8'
p5415
S'anthracosis'
p5416
tp5417
(lp5418
I19492233
as(S'ifng'
p5419
S'coeliac disease'
p5420
tp5421
(lp5422
I15215891
as(S'aldh2'
p5423
S'cirrhosis, alcoholic'
p5424
tp5425
(lp5426
I11748356
as(S'mirn146a'
p5427
g209
tp5428
(lp5429
I20488170
as(S'lyplal1'
p5430
g315
tp5431
(lp5432
I19557161
as(S'apoe'
p5433
S'hepatitis c'
p5434
tp5435
(lp5436
I14709760
as(S'il10'
p5437
S'lung function'
p5438
tp5439
(lp5440
I17331973
as(S'nppb'
p5441
S'left ventricular mass ventricular remodeling'
p5442
tp5443
(lp5444
I16875975
as(S'gaa'
p5445
S'glycogen storage disease type ii'
p5446
tp5447
(lp5448
I18458862
aI20080426
as(S'casr'
p5449
S'familial hypocalciuric hypercalcemia'
p5450
tp5451
(lp5452
I7673400
as(S'cat'
p5453
S'catalase activity diabetes, gestational diabetes, type 1 diabetes, type 2'
p5454
tp5455
(lp5456
I17577741
as(S'smad3'
p5457
S'cleft lip without cleft palate'
p5458
tp5459
(lp5460
I12202987
as(S'ccr2'
p5461
S'kidney transplant complications'
p5462
tp5463
(lp5464
I15458467
as(S'cyp2c8'
p5465
S'hypertension'
p5466
tp5467
(lp5468
I15864120
aI16202848
as(S'arhgap10'
p5469
g723
tp5470
(lp5471
I20332263
as(S'il2'
p5472
S'gonorrhea'
p5473
tp5474
(lp5475
I18496418
as(S'cyp3a'
p5476
g723
tp5477
(lp5478
I15050738
as(S'gck'
p5479
g381
tp5480
(lp5481
I20458967
aI20337973
aI20668700
aI20628598
as(S'vdr'
p5482
g381
tp5483
(lp5484
I19783860
aI20339297
aI11684548
aI15213319
aI16340785
as(S'serpine1'
p5485
g2058
tp5486
(lp5487
I18615155
as(S'ace'
p5488
g738
tp5489
(lp5490
I11870238
aI18756878
aI20044877
aI20524904
aI12654717
aI12932862
aI14967168
aI15082899
aI15223114
aI15294367
aI16052407
aI17194198
aI17401503
aI17710578
as(S'apoe'
p5491
S'insulin'
p5492
tp5493
(lp5494
I15549499
as(S'mafb'
p5495
S'ldl cholesterol'
p5496
tp5497
(lp5498
I19060906
as(S'cxcl12'
p5499
S'hematopoietic progenitor cells, mobilization of'
p5500
tp5501
(lp5502
I11328308
as(S'tnf'
p5503
S'irritant contact dermatitis'
p5504
tp5505
(lp5506
I10752629
as(S'il13'
p5507
S'atopic dermatitis, ocular'
p5508
tp5509
(lp5510
I17251453
as(S'abcb1'
p5511
g3620
tp5512
(lp5513
I12082591
as(S'cyp21a2'
p5514
S'adrenal androgen'
p5515
tp5516
(lp5517
I15705377
as(S'tph1'
p5518
S'personality trait'
p5519
tp5520
(lp5521
I15635702
as(S'rhd'
p5522
S'rhd-negative sensitized pregnancy'
p5523
tp5524
(lp5525
I12358932
as(S'fabp2'
p5526
g738
tp5527
(lp5528
I18422024
as(S'egr2'
p5529
g217
tp5530
(lp5531
I20194224
as(S'lcat'
p5532
S'hdl cholesterol'
p5533
tp5534
(lp5535
I12023990
aI19060906
as(S'lta'
p5536
S'autoimmune diseases'
p5537
tp5538
(lp5539
I18657583
aI18071035
as(S'tlr4'
p5540
S'brain infarction'
p5541
tp5542
(lp5543
I20504212
as(S'abcb5'
p5544
g315
tp5545
(lp5546
I20950786
as(S'cd14'
p5547
S'asthma atopy'
p5548
tp5549
(lp5550
I17456337
as(S'fgg'
p5551
S'brain infarction'
p5552
tp5553
(lp5554
I18690352
as(S'grm8'
p5555
S'smoking'
p5556
tp5557
(lp5558
I19268276
as(S'il6r'
p5559
g2011
tp5560
(lp5561
I19406470
as(S'slc23a2'
p5562
S'head and neck cancer'
p5563
tp5564
(lp5565
I19346260
as(S'slc22a3'
p5566
g5412
tp5567
(lp5568
I21242260
as(S'apoa1'
p5569
S'stroke, hemorrhagic'
p5570
tp5571
(lp5572
I12791946
as(S'lta'
p5573
S'aphthous stomatitis'
p5574
tp5575
(lp5576
I14566095
as(S'rel'
p5577
S'arthritis, rheumatoid'
p5578
tp5579
(lp5580
I19503088
aI19240061
aI18434448
aI20190752
aI21120996
aI19503088
as(S'il1b'
p5581
S'paediatric renal allograft'
p5582
tp5583
(lp5584
I19644155
as(S'hla-b'
p5585
g2555
tp5586
(lp5587
I19493237
as(S'slc6a4'
p5588
S'cardiovascular'
p5589
tp5590
(lp5591
I10381332
as(S'spink1'
p5592
S'alcohol'
p5593
tp5594
(lp5595
I18986377
as(S'pla2g6'
p5596
g2647
tp5597
(lp5598
I19578365
as(S'slc6a4'
p5599
g758
tp5600
(lp5601
I15241435
aI15313842
aI15148564
aI11311507
aI16212676
aI15993855
aI15879594
aI15842033
aI15563601
aI12869766
aI12605095
aI12563545
aI11983186
aI11925279
aI11543734
aI11326308
aI16209960
aI16209960
aI16023085
aI15867107
aI15520364
aI15318024
aI14612228
aI14512208
aI12378120
aI12090814
aI12083964
aI12068552
aI14757594
aI12090814
aI16458264
aI16934775
aI16946185
aI16965382
aI17017823
aI17018806
aI17063469
aI17069894
aI17123473
aI17146470
aI17183148
aI17455215
aI17466494
aI17482146
aI17579366
aI17621167
aI17299512
aI17387319
aI17450557
aI17621383
aI18347599
aI18396414
aI18441666
aI18452396
aI18450378
aI18465388
aI18458677
aI18498636
aI18644006
aI18640745
aI18775088
aI18801474
aI18972745
aI18981341
aI18973248
aI19008895
aI19016667
aI19016475
aI19125390
aI19272758
aI19329228
aI19339052
aI19387615
aI19410377
aI19437301
aI19429111
aI19438736
aI19451862
aI19446647
aI19468717
aI19531786
aI19541292
aI19649213
aI19639876
aI19806585
aI19811586
aI19844206
aI19878929
aI19885623
aI19899843
aI19897250
aI19911410
aI19969374
aI20018225
aI20017301
aI20037522
aI19567894
aI20090673
aI20147891
aI20336806
aI20416884
aI20450949
aI20606244
aI17635185
aI17702053
aI17804080
aI17970527
as(S'ppara'
p5602
S'heart disease, ischemic'
p5603
tp5604
(lp5605
I15699916
aI16221474
as(S'gnb4'
p5606
g1188
tp5607
(lp5608
I18815590
as(S'gpr126'
p5609
S'pulmonary function'
p5610
tp5611
(lp5612
I20010835
as(S'ifng'
p5613
g3746
tp5614
(lp5615
I17509455
as(S'il1a'
p5616
S'hypertriglyceridemia'
p5617
tp5618
(lp5619
I18815552
as(S'eng'
p5620
S'cerebral arteriopathy'
p5621
tp5622
(lp5623
I16179574
as(S'cd14'
p5624
S'coronary artery disease and myocardial infarction'
p5625
tp5626
(lp5627
I12450609
as(S'lep'
p5628
g1791
tp5629
(lp5630
I15978856
aI14720418
aI18681781
as(S'hla-dqb1'
p5631
g113
tp5632
(lp5633
I11169242
aI15853898
aI12121676
aI11334677
aI11454644
aI15174785
aI12050583
aI11345587
aI15350494
aI12515291
aI11484084
aI11045836
aI16567828
aI17190762
aI18728523
aI18085741
aI18200971
as(S'sod2'
p5634
S'subcutaneous fibrosis'
p5635
tp5636
(lp5637
I16966185
as(S'ptpn22'
p5638
S'asthma rheumatoid arthritis'
p5639
tp5640
(lp5641
I17579671
as(S'ache'
p5642
g10
tp5643
(lp5644
I12928915
aI15690550
aI17503475
aI18780301
as(S'gstm3'
p5645
S"lymphoma, non-hodgkin's"
p5646
tp5647
(lp5648
I16985026
as(S'tyr'
p5649
S'temperature-sensitive enzymatic activity'
p5650
tp5651
(lp5652
I1820207
as(S'mica'
p5653
S'erythema nodosum'
p5654
tp5655
(lp5656
I16923796
as(S'drd4'
p5657
S'novelty processing'
p5658
tp5659
(lp5660
I20156565
as(S'cyp2c19'
p5661
S'cyclophosphamide phamacokinetics'
p5662
tp5663
(lp5664
I16116487
as(S'cyp3a5'
p5665
S'endoxifen'
p5666
tp5667
(lp5668
I15632378
as(S'myb'
p5669
S'hypertension'
p5670
tp5671
(lp5672
I19862010
aI20816195
as(S'enpp1'
p5673
S'hepatitis c'
p5674
tp5675
(lp5676
I19107338
as(S'negr1'
p5677
S'diabetes mellitus, type 2'
p5678
tp5679
(lp5680
I19164386
as(S'tep1'
p5681
g723
tp5682
(lp5683
I19766477
aI17848914
as(S'runx1'
p5684
S'chronic myelomonocytic leukemia'
p5685
tp5686
(lp5687
I19282830
as(S'tsc1'
p5688
S'malformations of cortical development'
p5689
tp5690
(lp5691
I19175396
as(S'lmx1b'
p5692
S"parkinson's disease"
p5693
tp5694
(lp5695
I19189040
aI17905480
as(S'fgb'
p5696
S'atherosclerosis, coronary'
p5697
tp5698
(lp5699
I15575509
as(S'tp53'
p5700
g5175
tp5701
(lp5702
I18559976
aI18628487
aI20734458
aI20807096
aI17587242
aI17881637
as(S'ppp1r13l'
p5703
g2011
tp5704
(lp5705
I17131345
aI19734419
as(S'lst1'
p5706
g3704
tp5707
(lp5708
I19242354
as(S'il1rl1'
p5709
g1658
tp5710
(lp5711
I18774397
aI19198610
aI19852851
aI19910030
aI20860503
aI21804549
as(S'cdkn2a'
p5712
g2332
tp5713
(lp5714
I18838613
aI19596022
aI19665068
aI20453839
as(S'gckr'
p5715
S'fasting glucose-related traits'
p5716
tp5717
(lp5718
I20081858
aI20081858
aI20081858
as(S'serpine1'
p5719
S'coronary artery bypass graft'
p5720
tp5721
(lp5722
I15087600
as(S'slc6a3'
p5723
g70
tp5724
(lp5725
I20960275
as(S'orm2'
p5726
S'warfarin response'
p5727
tp5728
(lp5729
I19958090
as(S'stat6'
p5730
S'minimal change nephrotic syndrome'
p5731
tp5732
(lp5733
I12900808
as(S'tshr'
p5734
S'congenital hypothyroidism'
p5735
tp5736
(lp5737
I18379122
aI19158199
as(S'th'
p5738
g10
tp5739
(lp5740
I19120120
aI20163778
as(S'apoe'
p5741
S'warfarin sensitivity'
p5742
tp5743
(lp5744
I16847429
aI17048007
aI17325732
as(S'adipoq'
p5745
S'adiponectin metabolic syndrome'
p5746
tp5747
(lp5748
I16443770
as(S'mc1r'
p5749
S'carcinoma, basal cell'
p5750
tp5751
(lp5752
I11179997
aI18510673
aI18637131
aI18067130
aI21700618
as(S'rgs2'
p5753
S'autonomic nervous system diseases'
p5754
tp5755
(lp5756
I19243996
as(S'cyp1a1'
p5757
S'bronchiectasis'
p5758
tp5759
(lp5760
I12579334
aI15928955
as(S'lipg'
p5761
S'blood pressure'
p5762
tp5763
(lp5764
I17903302
as(S'esr1'
p5765
S'ductus arteriosus, patent'
p5766
tp5767
(lp5768
I19336370
as(S'apoa1'
p5769
S'diabetes, type 2'
p5770
tp5771
(lp5772
I12473160
as(S'cd14'
p5773
S'chronic infections and risk of stable coronary artery dis'
p5774
tp5775
(lp5776
I12103253
as(S'kras'
p5777
S'adenocarcinoma, papillary'
p5778
tp5779
(lp5780
I19369630
aI20526288
as(S'htr1a'
p5781
g1748
tp5782
(lp5783
I18562131
as(S'gcgr'
p5784
S'non-type 1 diabetes mellitus'
p5785
tp5786
(lp5787
I8858207
aI7773293
as(S'usp26'
p5788
S'adrenal insufficiency'
p5789
tp5790
(lp5791
I18958354
as(S'ifng'
p5792
S'hepatitis c, chronic'
p5793
tp5794
(lp5795
I15207246
aI15078471
aI16051377
aI16425360
aI19126646
aI19480854
aI20587546
as(S'tnfrsf10c'
p5796
S'benzene haematotoxicity'
p5797
tp5798
(lp5799
I19773279
as(S'il18'
p5800
S'aging'
p5801
tp5802
(lp5803
I16424284
as(S'cd14'
p5804
S'lymphoma, b-cell, marginal zone'
p5805
tp5806
(lp5807
I19189651
as(S'smad7'
p5808
g723
tp5809
(lp5810
I12202987
aI19505925
aI19395656
aI17934461
as(S'srd5a2'
p5811
S'diabetes, type 2'
p5812
tp5813
(lp5814
I16155734
as(S'ifng'
p5815
S'bullous pemphigoid'
p5816
tp5817
(lp5818
I16403098
as(S'icam1'
p5819
S'diabetes, type 2'
p5820
tp5821
(lp5822
I11132145
as(S'mtr'
p5823
S'cleft lip with cleft palate cleft lip without cleft palate'
p5824
tp5825
(lp5826
I16470748
aI16712703
as(S'cyba'
p5827
S'atherosclerosis, coronary cardiovascular disease diabetes, type 2 hypertension metabolic syndrome obesity stroke, hemorrhagic stroke, ischemic'
p5828
tp5829
(lp5830
I16998253
as(S'tlr8'
p5831
S'pregnancy complications, infectious'
p5832
tp5833
(lp5834
I17964520
as(S'esr1'
p5835
S'sex hormones'
p5836
tp5837
(lp5838
I17507630
as(S'sult1a1'
p5839
S'bladder cancer'
p5840
tp5841
(lp5842
I15122594
aI14643027
aI16504378
aI16985032
aI18365755
aI18632753
aI16380991
aI18264785
as(S'ccr3'
p5843
S'cedar pollinosis'
p5844
tp5845
(lp5846
I17135764
as(S'tap1'
p5847
S'coronary artery disease'
p5848
tp5849
(lp5850
I12047361
as(S'tyms'
p5851
S'alcoholism'
p5852
tp5853
(lp5854
I15459215
aI18285546
as(S'hla-drb4'
p5855
S"kaposi's sarcoma"
p5856
tp5857
(lp5858
I15902698
as(S'cfh'
p5859
S'arthritis, rheumatoid'
p5860
tp5861
(lp5862
I19567623
as(S'cyp1a1'
p5863
g415
tp5864
(lp5865
I18507050
aI18569591
aI18642288
aI19317600
aI19469619
aI19963139
aI20094781
aI20554493
aI20846153
aI20887941
aI21081473
aI21254556
aI12110344
aI12269988
aI12210502
aI12189551
aI14656945
aI14639127
aI14724908
aI15127559
aI15376230
aI15801491
aI15914211
aI16416283
aI16721740
aI17307803
aI18224491
as(S'rassf1'
p5866
S'head and neck cancer'
p5867
tp5868
(lp5869
I16125301
as(S'defb1'
p5870
g3807
tp5871
(lp5872
I20720450
as(S'ptpn2'
p5873
S'colonic diseases'
p5874
tp5875
(lp5876
I18936107
as(S'hla-dpb2'
p5877
g3311
tp5878
(lp5879
I19950302
as(S'nppa'
p5880
S'blood pressure'
p5881
tp5882
(lp5883
I12193960
aI12193960
as(S'eno1'
p5884
g90
tp5885
(lp5886
I18682748
as(S'mcph1'
p5887
S'cognitive function head circumference social intelligence'
p5888
tp5889
(lp5890
I17251122
as(S'tpmt'
p5891
g2332
tp5892
(lp5893
I18385010
aI18823306
aI19057372
aI19177822
aI19675376
aI20153897
aI18021342
as(S'fto'
p5894
S'adiposity'
p5895
tp5896
(lp5897
I20717169
aI21706003
as(S'hla-drb1'
p5898
S'dystonia, focal'
p5899
tp5900
(lp5901
I14581671
as(S'sele'
p5902
S'thyroid disease, autoimmune'
p5903
tp5904
(lp5905
I15584003
as(S's100b'
p5906
g758
tp5907
(lp5908
I18939940
as(S'fam3c'
p5909
g291
tp5910
(lp5911
I19396169
as(S'apoa5'
p5912
S'body mass obesity'
p5913
tp5914
(lp5915
I17211608
as(S'cyp2e1'
p5916
S'schizophrenia'
p5917
tp5918
(lp5919
I14695651
aI19230487
as(S'igfbp7'
p5920
g42
tp5921
(lp5922
I15708897
as(S'tlr2'
p5923
g205
tp5924
(lp5925
I17301562
as(S'vkorc1'
p5926
S'atherosclerosis'
p5927
tp5928
(lp5929
I19376320
as(S'ins'
p5930
S'diabetes mellitus, experimental'
p5931
tp5932
(lp5933
I18270681
as(S'mgp'
p5934
S'kidney stone disease'
p5935
tp5936
(lp5937
I17509359
as(S'calca'
p5938
g42
tp5939
(lp5940
I19736013
as(S'stat5b'
p5941
S'height'
p5942
tp5943
(lp5944
I17546465
as(S'apoe'
p5945
S'high coronary heart disease risk particularly affects ser'
p5946
tp5947
(lp5948
I11177205
as(S'nos3'
p5949
S'idiopathic dilated cardiomyopathy'
p5950
tp5951
(lp5952
I10636255
as(S'vkorc1'
p5953
S'aortic dissection atherosclerosis, coronary stroke'
p5954
tp5955
(lp5956
I16549638
as(S'fads2'
p5957
S'alkaline phosphatase'
p5958
tp5959
(lp5960
I22001757
as(S'ampd1'
p5961
S'endurance performance'
p5962
tp5963
(lp5964
I15677729
aI16767606
aI18801770
as(S'golm1'
p5965
g10
tp5966
(lp5967
I19749441
aI19204163
aI17998437
aI20592574
as(S'kir2dl1'
p5968
g579
tp5969
(lp5970
I19450876
aI18269867
as(S'abcg2'
p5971
S'rosuvastatin pharmacokinetics'
p5972
tp5973
(lp5974
I16784736
as(S'ugt2b7'
p5975
S'carvedilol phamacokinetics'
p5976
tp5977
(lp5978
I17329852
as(S'gstp1'
p5979
S'bronchopulmonary dysplasia.'
p5980
tp5981
(lp5982
I14726935
as(S'cdkn1a'
p5983
S'adenocarcinoma'
p5984
tp5985
(lp5986
I18694622
aI18842998
aI20524403
as(S'amacr'
p5987
S'bladder cancer'
p5988
tp5989
(lp5990
I19692168
as(S'gstt1'
p5991
S'diet effects'
p5992
tp5993
(lp5994
I19843669
as(S'esr1'
p5995
S'liver cirrhosis, biliary'
p5996
tp5997
(lp5998
I12169981
as(S'rad52'
p5999
S'carcinoma, papillary'
p6000
tp6001
(lp6002
I19092295
as(S'f2'
p6003
S'central nervous system vascular malformations'
p6004
tp6005
(lp6006
I18824942
as(S'ifng'
p6007
S'toxoplasmosis, congenital'
p6008
tp6009
(lp6010
I19639725
aI19547871
as(S'itga2'
p6011
S'angina'
p6012
tp6013
(lp6014
I11472360
as(S'fshr'
p6015
g2833
tp6016
(lp6017
I20237833
aI20399696
as(S'ank3'
p6018
g193
tp6019
(lp6020
I19088739
aI18711365
aI18711365
aI18711365
aI22182935
as(S'cdkn1b'
p6021
S'coronary artery disease'
p6022
tp6023
(lp6024
I19667240
as(S'cftr'
p6025
S'embryo loss'
p6026
tp6027
(lp6028
I16379540
as(S'ttc39b'
p6029
g1929
tp6030
(lp6031
I19060906
as(S'casp1'
p6032
g10
tp6033
(lp6034
I20184726
as(S'kcnh2'
p6035
S'fibromyalgia'
p6036
tp6037
(lp6038
I20386770
as(S'tpmt'
p6039
g723
tp6040
(lp6041
I12940924
aI14656901
aI15206995
aI12172211
aI12940924
aI15247157
aI16202677
aI12814450
aI16006997
aI18616518
aI18600549
aI18827410
aI19214663
aI19252404
aI19650826
aI19682195
as(S'atg16l1'
p6042
g730
tp6043
(lp6044
I18438406
aI18521914
aI18499543
aI18521924
aI18824555
aI19262523
aI19235913
aI19276991
aI19455129
as(S'ctsc'
p6045
g2294
tp6046
(lp6047
I18809751
as(S'bhmt2'
p6048
S'cleft lip without cleft palate'
p6049
tp6050
(lp6051
I15887275
as(S'bfzb'
p6052
S'height'
p6053
tp6054
(lp6055
I18193045
as(S'aplnr'
p6056
g611
tp6057
(lp6058
I19069168
as(S'bcl2a1'
p6059
g5296
tp6060
(lp6061
I18093280
as(S'atp1b1'
p6062
S'hypertension'
p6063
tp6064
(lp6065
I19563793
as(S'cyp11b2'
p6066
S'heart rate'
p6067
tp6068
(lp6069
I15238568
as(S'ins'
p6070
g30
tp6071
(lp6072
I12610512
aI15678496
aI15880482
aI12610512
aI17348446
aI17416760
aI17914103
as(S'il13ra2'
p6073
S'sclerosis, systemic'
p6074
tp6075
(lp6076
I16981293
as(S'hfe'
p6077
S'iron levels'
p6078
tp6079
(lp6080
I15338274
aI15863206
aI12681966
aI12667993
aI15698609
aI15673318
aI12673276
aI12712916
aI17135308
aI17585191
as(S'il1b'
p6081
S'ovarian cancer'
p6082
tp6083
(lp6084
I15581980
aI12067976
aI15265021
aI11600466
aI9568467
aI9568467
aI14961572
aI16618781
aI16775170
aI17361014
aI17454884
aI16464738
aI18617366
aI18757527
aI18794066
aI18953879
aI19267370
aI19267917
aI19474090
aI19461122
aI19643686
aI19760027
aI20035239
aI20106900
aI20418110
aI20437198
aI20529668
aI12445604
aI16030091
aI16106254
aI16126303
aI16115908
aI16319982
aI16358261
aI16842617
aI17141301
aI17385677
aI17596594
aI18174250
aI18164040
as(S'cd40lg'
p6085
S'hyper-igm syndrome can form oligomers and trigger cd40-mediated signals'
p6086
tp6087
(lp6088
I10559240
as(S'lif'
p6089
S'schizophrenia'
p6090
tp6091
(lp6092
I19879916
as(S'il1rn'
p6093
S'gastritis, chronic atrophic'
p6094
tp6095
(lp6096
I16284368
as(S'tcn2'
p6097
S'omphalocele'
p6098
tp6099
(lp6100
I15937947
aI14725943
as(S'lcat'
p6101
S'hypoalphalipoproteinemia'
p6102
tp6103
(lp6104
I16115486
aI12048121
as(S'fdft1'
p6105
g770
tp6106
(lp6107
I17805225
as(S'prss1'
p6108
g1522
tp6109
(lp6110
I17981921
as(S'mal'
p6111
S'arthritis, rheumatoid'
p6112
tp6113
(lp6114
I18180278
as(S'pthr1'
p6115
S'bone density'
p6116
tp6117
(lp6118
I15294324
aI16369896
aI11932319
as(S'alox12'
p6119
S'esophageal cancer'
p6120
tp6121
(lp6122
I17460548
as(S'ccr2'
p6123
S'nephropathy, diabetic'
p6124
tp6125
(lp6126
I11756347
as(S'pdcd1'
p6127
S"addison's disease graves' disease"
p6128
tp6129
(lp6130
I17535987
as(S'maob'
p6131
S'alcoholism'
p6132
tp6133
(lp6134
I18405071
as(S'abca1'
p6135
S'arterial-wall changes'
p6136
tp6137
(lp6138
I11809185
as(S'ampd1'
p6139
S'cardiovascular disease'
p6140
tp6141
(lp6142
I12783984
as(S'hla-a'
p6143
S'jaw diseases'
p6144
tp6145
(lp6146
I12486606
aI15275783
as(S'cyp2b6'
p6147
S'dose of nevirapine or efavirenz'
p6148
tp6149
(lp6150
I19239339
as(S'il1ra'
p6151
S'severe sepsis'
p6152
tp6153
(lp6154
I11876758
as(S'klf11'
p6155
g655
tp6156
(lp6157
I18505768
as(S'cx3cr1'
p6158
S'intima-media thickness'
p6159
tp6160
(lp6161
I16675737
as(S'gsto1'
p6162
g2833
tp6163
(lp6164
I15623683
as(S'ap3m2'
p6165
g809
tp6166
(lp6167
I17293072
as(S'fga'
p6168
S'atherosclerosis, coronary atherosclerosis, generalized'
p6169
tp6170
(lp6171
I17264959
as(S'slc6a2'
p6172
S'schizophrenia'
p6173
tp6174
(lp6175
I12097806
aI12097806
aI12210284
aI18591486
aI18552510
aI18821564
aI18821565
aI19058789
aI18937309
aI19352218
aI19387424
aI19685476
aI19506906
aI19721846
aI19698724
aI19944766
aI19874574
aI20691427
aI17994190
aI18163388
as(S'mtrr'
p6176
g738
tp6177
(lp6178
I16861746
aI20888556
as(S'ercc2'
p6179
g742
tp6180
(lp6181
I18559563
aI19432884
aI19638463
aI20530453
aI17009404
aI17593927
as(S'il12b'
p6182
S"hashimoto's thryoiditis"
p6183
tp6184
(lp6185
I15644581
as(S'vkorc1'
p6186
g505
tp6187
(lp6188
I20434758
as(S'igf1r'
p6189
S'bacteremia'
p6190
tp6191
(lp6192
I16886151
as(S'lpl'
p6193
g1156
tp6194
(lp6195
I12514935
aI12174215
aI16015281
aI16029634
as(S'sele'
p6196
S'cholesterol, ldl'
p6197
tp6198
(lp6199
I16080806
as(S'ptgs2'
p6200
g711
tp6201
(lp6202
I21042835
as(S'abcc2'
p6203
S'pravastatin kinetics'
p6204
tp6205
(lp6206
I15226675
as(S'gstt1'
p6207
S'lymphoma, b-cell, marginal zone'
p6208
tp6209
(lp6210
I15339690
as(S'tnf'
p6211
S'esophageal cancer'
p6212
tp6213
(lp6214
I16313841
as(S'gstm1'
p6215
S'acrylamide'
p6216
tp6217
(lp6218
I19131562
aI19190172
as(S'opa1'
p6219
g2058
tp6220
(lp6221
I11810296
aI12543739
aI12073024
aI12073024
aI11810296
aI17188046
aI19319978
aI19754948
aI19619285
aI20357201
aI19581274
aI18079692
as(S'maoa'
p6222
S'self-harm behavior'
p6223
tp6224
(lp6225
I12877392
as(S'mmp9'
p6226
g121
tp6227
(lp6228
I15316122
as(S'aldh2'
p6229
S'elevated liver enzymes and metabolic syndrome'
p6230
tp6231
(lp6232
I14506613
as(S'tnf'
p6233
g291
tp6234
(lp6235
I12702205
aI18632425
aI18680515
aI19408823
aI19594368
as(S'gabra6'
p6236
S'cirrhosis, alcoholic'
p6237
tp6238
(lp6239
I15542698
as(S'tnf'
p6240
g5789
tp6241
(lp6242
I18689851
as(S'cyp2c9'
p6243
S'ibuprofen clearance'
p6244
tp6245
(lp6246
I12435384
as(S'ghr'
p6247
S'blood pressure, arterial hypertension'
p6248
tp6249
(lp6250
I17137217
as(S'notch4'
p6251
S'schizophrenia'
p6252
tp6253
(lp6254
I14732589
aI15115916
aI11803454
aI12627456
aI16378929
aI11381257
aI11381258
aI15211628
aI15653273
aI11407996
aI12605097
aI12782960
aI14732589
aI11239712
aI12605097
aI10932176
aI12873802
aI11803454
aI11381258
aI16894623
aI16969274
aI17054719
aI16538185
aI17192952
as(S'gfra2'
p6255
S"hirschsprung's disease"
p6256
tp6257
(lp6258
I12624147
as(S'exo1'
p6259
S'smoking'
p6260
tp6261
(lp6262
I19515603
as(S'mlh1'
p6263
g723
tp6264
(lp6265
I15958648
aI15583422
aI16237223
aI15849733
aI15520370
aI16003840
aI16106253
aI16203774
aI15713769
aI15831578
aI15858146
aI15340264
aI15342696
aI15613860
aI14961575
aI15043284
aI14529665
aI14635101
aI12930688
aI11208710
aI15382050
aI15769334
aI15769334
aI16353134
aI12891553
aI12011151
aI16116158
aI15952990
aI16636019
aI16696788
aI16740762
aI16807412
aI17108146
aI17205513
aI17348456
aI17417778
aI16774946
aI17095871
aI17312306
aI18405947
aI18364438
aI18554281
aI18547406
aI18623088
aI18712731
aI18701435
aI18723338
aI18841495
aI18759827
aI18972272
aI18851982
aI19062740
aI19115210
aI19244167
aI19337631
aI19291797
aI19248199
aI19504447
aI19364498
aI19526325
aI19635727
aI19665066
aI19723918
aI19858398
aI19956916
aI19876921
aI20056646
aI20210238
aI20206180
aI20336543
aI20458443
aI20967208
aI11579115
aI12419761
aI11920650
aI11782355
aI11726306
aI15774782
aI15596632
aI16940983
aI17374836
aI17074586
aI17939062
aI17870204
aI17785078
aI17505997
aI18033691
aI18061181
aI18257912
as(S'aldh1a1'
p6266
S'breast neoplasms'
p6267
tp6268
(lp6269
I18496131
as(S'scap'
p6270
S'diabetes mellitus'
p6271
tp6272
(lp6273
I19116028
as(S'rara'
p6274
S'cleft lip with cleft palate cleft lip without cleft palate cleft palate'
p6275
tp6276
(lp6277
I17272867
as(S'adh1c'
p6278
S'alcohol dependence'
p6279
tp6280
(lp6281
I16685648
as(S'ncf4'
p6282
g723
tp6283
(lp6284
I19372141
as(S'tp53'
p6285
S'astrocytoma'
p6286
tp6287
(lp6288
I19246647
aI20174854
aI21046311
aI15950766
aI17854663
as(S'ace'
p6289
S'angiotensinogen hypertension'
p6290
tp6291
(lp6292
I17083073
as(S'lipc'
p6293
S'fredrickson hyperlipoproteinemia'
p6294
tp6295
(lp6296
I19656773
as(S'sparc'
p6297
g1445
tp6298
(lp6299
I18084690
as(S'cyp2b6'
p6300
S'sibutramine'
p6301
tp6302
(lp6303
I19693007
as(S'arx'
p6304
S'mental disorder'
p6305
tp6306
(lp6307
I15199382
as(S'pon1'
p6308
S'uremia'
p6309
tp6310
(lp6311
I12790379
as(S'sbf2'
p6312
S'lipid levels'
p6313
tp6314
(lp6315
I19936222
as(S'il1rn'
p6316
g455
tp6317
(lp6318
I19338208
as(S'oprk1'
p6319
g1748
tp6320
(lp6321
I18213616
as(S'pafah1b1'
p6322
g10
tp6323
(lp6324
I20464283
as(S'cdkn2a'
p6325
S'familial melanoma'
p6326
tp6327
(lp6328
I10417291
as(S'esr2'
p6329
g381
tp6330
(lp6331
I19032828
as(S'kel'
p6332
S'myocardial infarct'
p6333
tp6334
(lp6335
I15754970
as(S'slc19a1'
p6336
g579
tp6337
(lp6338
I12411325
as(S'sgcd'
p6339
S'waist-hip ratio'
p6340
tp6341
(lp6342
I19260139
as(S'irf8'
p6343
g169
tp6344
(lp6345
I16504056
as(S'igf1'
p6346
S'mamographic density'
p6347
tp6348
(lp6349
I17300730
as(S'rhce'
p6350
S'blood group incompatibility'
p6351
tp6352
(lp6353
I18460195
as(S'slc6a4'
p6354
S'eating disorder'
p6355
tp6356
(lp6357
I16249995
as(S'scnn1a'
p6358
S'blood pressure'
p6359
tp6360
(lp6361
I11752024
as(S'cubn'
p6362
g1075
tp6363
(lp6364
I19161160
as(S'aldh2'
p6365
g3199
tp6366
(lp6367
I16408483
as(S'g6pc'
p6368
S'glycogen storage disease'
p6369
tp6370
(lp6371
I15316959
as(S'disc1'
p6372
S'cognitive ability'
p6373
tp6374
(lp6375
I19077115
as(S'terf1'
p6376
g723
tp6377
(lp6378
I19766477
aI19773453
aI17848914
as(S'vegfa'
p6379
S'breast cancer vascular endothelial growth factor levels'
p6380
tp6381
(lp6382
I17471570
as(S'hoxc13'
p6383
S'waist-hip ratio'
p6384
tp6385
(lp6386
I20935629
as(S'pomc'
p6387
S'esophageal cancer'
p6388
tp6389
(lp6390
I18398047
as(S'mmp1'
p6391
S'pregnancy- induced hypertension'
p6392
tp6393
(lp6394
I11586041
as(S'mirn146a'
p6395
g1658
tp6396
(lp6397
I20500689
as(S'mt-co2'
p6398
g723
tp6399
(lp6400
I15308583
as(S'c12orf35'
p6401
g2282
tp6402
(lp6403
I20379614
as(S'myl3'
p6404
S'death, sudden, cardiac'
p6405
tp6406
(lp6407
I19035361
aI20359594
as(S'tph1'
p6408
S'panic disorder'
p6409
tp6410
(lp6411
I15670397
as(S'ace'
p6412
S'c-reactive protein'
p6413
tp6414
(lp6415
I15958311
as(S'ddah2'
p6416
S'organ failure septic shock'
p6417
tp6418
(lp6419
I17002794
as(S'hexb'
p6420
S'sandhoff disease'
p6421
tp6422
(lp6423
I1975561
aI8950198
as(S'ace'
p6424
S'plasma antigen levels of plasminogen activator inhibitor-1'
p6425
tp6426
(lp6427
I10759003
as(S'cast'
p6428
S'blood pressure, arterial hypertension'
p6429
tp6430
(lp6431
I17137217
as(S'mica'
p6432
g291
tp6433
(lp6434
I18718856
aI19317747
aI19364518
aI20097244
as(S'ptgds'
p6435
S'carotid atherosclerosis'
p6436
tp6437
(lp6438
I15325247
as(S'trib1'
p6439
g10
tp6440
(lp6441
I18987386
aI21071687
as(S'arsa'
p6442
S'metachromatic leukodystrophy'
p6443
tp6444
(lp6445
I16140556
as(S'ces2'
p6446
g723
tp6447
(lp6448
I18797458
as(S'irs1'
p6449
S'birth weight'
p6450
tp6451
(lp6452
I16030120
as(S'il12rb2'
p6453
S'breast neoplasms'
p6454
tp6455
(lp6456
I18927311
as(S'xrcc6'
p6457
g723
tp6458
(lp6459
I12750264
aI15958648
aI18374504
aI19219618
aI19408343
aI18000863
as(S'tp53'
p6460
g1460
tp6461
(lp6462
I20464958
as(S'comt'
p6463
S'body mass obesity'
p6464
tp6465
(lp6466
I16674552
as(S'hla-drb1'
p6467
S'autoimmune thyroid disease'
p6468
tp6469
(lp6470
I11678832
as(S'serpine1'
p6471
g2420
tp6472
(lp6473
I18463321
aI18974580
as(S'il6'
p6474
g611
tp6475
(lp6476
I16051899
aI18158110
as(S'mmp9'
p6477
S'matrix metalloproteinase-9 activity'
p6478
tp6479
(lp6480
I16168399
as(S'cyp19a1'
p6481
S'adenocarcinoma'
p6482
tp6483
(lp6484
I18491956
aI20688833
aI17682677
as(S'kcnj10'
p6485
g1996
tp6486
(lp6487
I15120748
as(S'sln'
p6488
S'atrial fibrillation lqts sudden arrhythmic death syndrome'
p6489
tp6490
(lp6491
I17010328
as(S'oxt'
p6492
g2571
tp6493
(lp6494
I19598235
aI20436377
aI18207134
as(S'myoc'
p6495
S'glaucoma, primary open-angle'
p6496
tp6497
(lp6498
I15342693
aI15723004
aI15534471
aI15646469
aI16148883
aI15161538
aI15338275
aI15483649
aI16358725
aI11853639
aI14767915
aI15354075
aI11595024
aI16280977
aI16681888
aI17122126
aI17562996
aI17563717
aI17605937
aI17615537
aI16688110
aI17417611
as(S'abcc2'
p6499
S'pravastatin'
p6500
tp6501
(lp6502
I19776292
as(S'hp'
p6503
S'lipoprotein, ldl'
p6504
tp6505
(lp6506
I15306193
as(S'chrna1'
p6507
g723
tp6508
(lp6509
I19010884
as(S'esr2'
p6510
S'bone mass'
p6511
tp6512
(lp6513
I15068501
as(S'maoa'
p6514
S'monoamine metabolites'
p6515
tp6516
(lp6517
I15457497
as(S'gstt1'
p6518
g10
tp6519
(lp6520
I15333250
aI15805147
aI17448506
aI17823442
aI18298341
as(S'hmox1'
p6521
S'aneurysm, abdominal aortic'
p6522
tp6523
(lp6524
I12182912
as(S'ace'
p6525
g1156
tp6526
(lp6527
I15252864
as(S'fcer1g'
p6528
g121
tp6529
(lp6530
I11898918
as(S'plaur'
p6531
g723
tp6532
(lp6533
I19117638
aI20937265
as(S'glo1'
p6534
g181
tp6535
(lp6536
I19412133
as(S'pdgfra'
p6537
S'brain neoplasms'
p6538
tp6539
(lp6540
I19861461
as(S'lmna'
p6541
g217
tp6542
(lp6543
I20501691
as(S'vdr'
p6544
S'radiographic osteoarthritis at the knee'
p6545
tp6546
(lp6547
I9218501
as(S'selp'
p6548
S'soluble levels of adhesion molecules'
p6549
tp6550
(lp6551
I20167578
aI20167578
as(S'stat6'
p6552
g1658
tp6553
(lp6554
I15637551
aI12759487
aI11912176
aI11912176
aI10905892
aI10905892
aI11912176
aI14767694
aI19247692
aI20394509
aI17883727
as(S'ms'
p6555
g1075
tp6556
(lp6557
I12111380
as(S'gabrb3'
p6558
g193
tp6559
(lp6560
I11378843
aI19078961
as(S'cyp1b1'
p6561
S'glaucoma, primary congenital'
p6562
tp6563
(lp6564
I15475877
aI15723004
as(S'fcer2'
p6565
g1526
tp6566
(lp6567
I18697825
as(S'apoe'
p6568
g890
tp6569
(lp6570
I15634227
aI16328515
aI18378884
aI19686716
aI20153809
aI20548041
aI20667857
aI20940625
aI21061402
aI21159973
aI11061249
aI11571342
aI12580859
aI12960780
aI16275840
aI16446541
aI16484411
aI17038035
aI17322072
aI18256366
as(S'lipc'
p6571
S'heart disease, ischemic'
p6572
tp6573
(lp6574
I17568951
as(S'cpeb1'
p6575
g579
tp6576
(lp6577
I20062064
as(S'lhb'
p6578
g738
tp6579
(lp6580
I16410673
as(S'traf1'
p6581
g2374
tp6582
(lp6583
I19902201
as(S'slc6a4'
p6584
g809
tp6585
(lp6586
I17548158
aI18688140
aI19375285
aI20435093
aI20488209
aI20585826
aI20655708
aI20959425
as(S'apoe'
p6587
g1156
tp6588
(lp6589
I15559160
aI12495081
aI15331430
aI12788901
aI12818409
aI11387943
as(S'runx2'
p6590
S'ossification of posterior longitudinal ligament'
p6591
tp6592
(lp6593
I20721706
as(S'mthfr'
p6594
g524
tp6595
(lp6596
I20721969
as(S'cldn14'
p6597
g607
tp6598
(lp6599
I19254696
as(S'ptprc'
p6600
g5996
tp6601
(lp6602
I15963758
aI12595907
as(S'pip'
p6603
g30
tp6604
(lp6605
I10390157
as(S'tagln'
p6606
g30
tp6607
(lp6608
I20540360
as(S'xpc'
p6609
g1748
tp6610
(lp6611
I20377134
as(S'cma1'
p6612
S'ige levels'
p6613
tp6614
(lp6615
I16134991
as(S'tnf'
p6616
S'breast neoplasms'
p6617
tp6618
(lp6619
I11241233
aI15986200
aI17234183
as(S'nos3'
p6620
S'hepatopulmonary syndrome'
p6621
tp6622
(lp6623
I17934860
as(S'hfe'
p6624
S'colon cancer'
p6625
tp6626
(lp6627
I12529348
as(S'gstm3'
p6628
S'ethylene oxide metabolism/toxicity'
p6629
tp6630
(lp6631
I11535247
as(S'hspa1a'
p6632
S'chronic obstructive pulmonary disease/copd'
p6633
tp6634
(lp6635
I15165109
as(S'nfkb1'
p6636
S'ankylosing spondylitis'
p6637
tp6638
(lp6639
I16206345
as(S'cyp26c1'
p6640
S'schizophrenia'
p6641
tp6642
(lp6643
I19703508
as(S'gypa'
p6644
S'psoriasis vulgaris'
p6645
tp6646
(lp6647
I15754970
as(S'slc19a1'
p6648
S'folate homocysteine'
p6649
tp6650
(lp6651
I16522921
as(S'slc24a5'
p6652
S'carcinoma, basal cell'
p6653
tp6654
(lp6655
I19384953
as(S'lipg'
p6656
g1929
tp6657
(lp6658
I17700364
as(S'evc'
p6659
S'suicide'
p6660
tp6661
(lp6662
I19115052
as(S'cysltr1'
p6663
g149
tp6664
(lp6665
I18366797
aI19733299
as(S'stat4'
p6666
g169
tp6667
(lp6668
I18703106
aI19110536
aI19120275
aI19371230
as(S'ccl5'
p6669
g1696
tp6670
(lp6671
I18696265
as(S'slc6a2'
p6672
S'norepinephrine-transporter deficiency'
p6673
tp6674
(lp6675
I10684912
as(S'fcrl3'
p6676
S'lupus erythematosus rheumatoid arthritis'
p6677
tp6678
(lp6679
I17133581
as(S'rora'
p6680
S'response to citalopram treatment'
p6681
tp6682
(lp6683
I19846067
as(S'gstt1'
p6684
g1391
tp6685
(lp6686
I19223573
aI16484137
as(S'enpp1'
p6687
S'systolic blood pressure'
p6688
tp6689
(lp6690
I11473061
as(S'esr1'
p6691
g1748
tp6692
(lp6693
I19822194
as(S'gstm1'
p6694
S'alcohol abuse'
p6695
tp6696
(lp6697
I12960511
as(S'gja4'
p6698
S'abdominal aortic aneurysm'
p6699
tp6700
(lp6701
I15234427
as(S'slc6a4'
p6702
S'anxiety depression mental maladaptation'
p6703
tp6704
(lp6705
I17310797
as(S'nos3'
p6706
S'carotid intima-media thickness'
p6707
tp6708
(lp6709
I15073390
aI19620885
as(S'cyp11b2'
p6710
S'blood pressure, arterial hypertension'
p6711
tp6712
(lp6713
I17334644
as(S'or13g1'
p6714
g1791
tp6715
(lp6716
I19056482
as(S'havcr2'
p6717
g169
tp6718
(lp6719
I18401547
as(S'smad7'
p6720
S'carcinoma'
p6721
tp6722
(lp6723
I20124488
as(S'esr1'
p6724
g973
tp6725
(lp6726
I21085187
aI15381239
as(S'xylt1'
p6727
S'nephropathy in other diseases'
p6728
tp6729
(lp6730
I16164625
as(S'kcnq4'
p6731
S'hearing loss, sensorineural nonsyndromic'
p6732
tp6733
(lp6734
I17033161
as(S'zbtb40'
p6735
S'bone mineral density (hip)'
p6736
tp6737
(lp6738
I19801982
aI18445777
as(S'tfrc'
p6739
S'erythrocyte indices'
p6740
tp6741
(lp6742
I19862010
aI19862010
as(S'dbh'
p6743
g2647
tp6744
(lp6745
I19016604
as(S'f5'
p6746
S'fibrinogen protein c resistance ratio prothrombin thrombosis, deep vein'
p6747
tp6748
(lp6749
I17230042
as(S'cyp2d6'
p6750
g591
tp6751
(lp6752
I18719619
aI17289397
as(S'igf1'
p6753
S'insulin-like growth factor-3'
p6754
tp6755
(lp6756
I11319179
as(S'htr5a'
p6757
S'schizophrenia'
p6758
tp6759
(lp6760
I17203304
as(S'ppp2r2b'
p6761
S'alzheimer disease'
p6762
tp6763
(lp6764
I18484086
as(S'nos2a'
p6765
S'brain infarction'
p6766
tp6767
(lp6768
I20886685
as(S'ppargc1a'
p6769
S'diabetes, gestational'
p6770
tp6771
(lp6772
I17342473
as(S'itgb3'
p6773
S'retinal vascular occlusion'
p6774
tp6775
(lp6776
I16157382
as(S'znf804a'
p6777
S'schizophrenia'
p6778
tp6779
(lp6780
I18677311
aI19844207
aI18677311
aI20862696
aI20603450
aI18677311
as(S'cyp2d6'
p6781
S'haematological neoplasias'
p6782
tp6783
(lp6784
I10383893
as(S'il1b'
p6785
g742
tp6786
(lp6787
I17372270
aI17035400
aI18688641
aI18949424
aI19102413
aI19244371
aI19251436
aI19375306
aI19492240
aI12441323
aI15175940
aI15540224
aI15704154
aI15800325
aI15851404
aI15878285
aI15927855
aI16128937
aI16454826
aI16985030
aI17096351
aI17196954
aI17359523
aI17685194
aI17854273
as(S'adh1b'
p6788
S'bone density'
p6789
tp6790
(lp6791
I16520888
as(S'ctla4'
p6792
S'cirrhosis, alcoholic'
p6793
tp6794
(lp6795
I15208156
as(S'hfe'
p6796
S'pregnancy loss, recurrent'
p6797
tp6798
(lp6799
I15304010
as(S'pten'
p6800
S'esophageal adenocarcinoma'
p6801
tp6802
(lp6803
I20453000
as(S'crp'
p6804
S'cognitive ability'
p6805
tp6806
(lp6807
I19821022
as(S'dbh'
p6808
g809
tp6809
(lp6810
I15505174
aI19219470
aI19772578
as(S'bace2'
p6811
g10
tp6812
(lp6813
I12707937
aI16023140
aI19124009
as(S'tlr4'
p6814
g953
tp6815
(lp6816
I19445990
as(S'ccr2'
p6817
g205
tp6818
(lp6819
I11898620
aI12436194
aI15579296
aI16123688
aI16286054
aI11696224
aI11729511
aI11860793
aI11860823
aI11988632
aI12447757
aI12556692
aI12571520
aI12853745
aI14533983
aI15076247
aI15140377
aI15575507
aI15639953
aI15769362
aI15980693
aI16140745
aI16261210
aI15472820
aI12584049
aI12884524
aI14742283
aI15236615
aI15362666
aI15585333
aI15754978
aI16286055
aI15319853
aI16323127
aI14624371
aI15793370
aI15602133
aI15929697
aI16206074
aI16478397
aI16485782
aI16529059
aI16865553
aI17091019
aI17504503
aI17604544
aI17786209
as(S'gabrb2'
p6820
S'alcoholism'
p6821
tp6822
(lp6823
I19523047
as(S'cyp2c19'
p6824
S'metabolism disorders'
p6825
tp6826
(lp6827
I13680037
as(S'cps1'
p6828
S'necrotizing enterocolitis'
p6829
tp6830
(lp6831
I17597649
as(S'ppp1r3a'
p6832
S'stroke, ischemic'
p6833
tp6834
(lp6835
I11512679
as(S'nat1'
p6836
S'colorectal adenomas'
p6837
tp6838
(lp6839
I8895478
as(S'abcg5'
p6840
S'campesterol'
p6841
tp6842
(lp6843
I15520451
as(S'prune2'
p6844
S'hippocampus'
p6845
tp6846
(lp6847
I19668339
as(S'slc6a4'
p6848
S'physiological sexual disorders'
p6849
tp6850
(lp6851
I19170855
aI19204908
aI19252508
as(S'mlxipl'
p6852
S'gamma-glutamyltransferase'
p6853
tp6854
(lp6855
I22001757
as(S'vdr'
p6856
S'hashimoto disease'
p6857
tp6858
(lp6859
I11028447
aI16721822
aI18279374
as(S'il6'
p6860
S'paediatric renal allograft'
p6861
tp6862
(lp6863
I19644155
as(S'glis3'
p6864
g169
tp6865
(lp6866
I19430480
as(S'cyp1a1'
p6867
g528
tp6868
(lp6869
I12397416
aI11191882
as(S'calcrl'
p6870
S'eye abnormalities'
p6871
tp6872
(lp6873
I19898635
as(S'nos3'
p6874
S'1-carbon metabolism'
p6875
tp6876
(lp6877
I18988749
as(S'xdh'
p6878
S'brain neoplasms'
p6879
tp6880
(lp6881
I19505917
aI20406964
as(S'ugt1a1'
p6882
S'adenoma'
p6883
tp6884
(lp6885
I20207827
as(S'flcn'
p6886
g482
tp6887
(lp6888
I19116017
as(S'serpina3'
p6889
S'asthma. bhr. total ige. spt'
p6890
tp6891
(lp6892
I11295654
aI11295654
as(S'apoa4'
p6893
g1791
tp6894
(lp6895
I18789138
as(S'variant (rs)'
p6896
g133
tp6897
(lp6898
I11045789
as(S'ntm'
p6899
S'hip'
p6900
tp6901
(lp6902
I17903296
as(S'pbx4'
p6903
S'ldl cholesterol'
p6904
tp6905
(lp6906
I18193044
as(S'cd209'
p6907
S'hepatitis c, chronic'
p6908
tp6909
(lp6910
I20470843
as(S'il1a'
p6911
S"parkinson's disease"
p6912
tp6913
(lp6914
I18760325
aI20561568
aI15050696
aI17458495
aI18284424
as(S'edn1'
p6915
S'glaucoma, primary open-angle'
p6916
tp6917
(lp6918
I15988412
as(S'il1b'
p6919
S'gingival crevicular fluid and orthodontic tooth movement'
p6920
tp6921
(lp6922
I19419456
as(S'il10'
p6923
S'skin cancer, non-melanoma'
p6924
tp6925
(lp6926
I17307204
as(S'tshr'
p6927
S'breast neoplasms'
p6928
tp6929
(lp6930
I17952073
as(S'polb'
p6931
S'bladder cancer'
p6932
tp6933
(lp6934
I17203305
aI19237606
as(S'vdr'
p6935
g30
tp6936
(lp6937
I10987658
aI8998186
aI12150447
aI10545416
aI10667581
aI11789558
aI10344739
aI14991752
aI14574802
aI15267201
aI15083213
aI15061984
aI11532853
aI11720436
aI15711606
aI14719475
aI12036913
aI12540499
aI17010601
aI16821341
aI17244366
aI18419802
aI18483761
aI18483391
aI18583126
aI18587672
aI18618252
aI18709640
aI18752562
aI18719092
aI18849534
aI18936471
aI19052755
aI19124512
aI19105801
aI19145484
aI19223536
aI19255064
aI19454612
aI19588543
aI19684888
aI19644412
aI19727412
aI19706842
aI19861519
aI19795209
aI19904266
aI19961572
aI20086113
aI20473893
aI20687218
aI11389055
aI11484168
aI11920955
aI12053022
aI12181642
aI12807755
aI12694466
aI12899513
aI14693728
aI14749534
aI15065089
aI15050735
aI15083068
aI15252846
aI15328186
aI15298953
aI15503828
aI15717311
aI15824177
aI15911240
aI15897695
aI16019132
aI15958597
aI16214913
aI16626332
aI16629532
aI16708371
aI16788818
aI16791482
aI16815628
aI17119052
aI17164384
aI17243190
aI17388667
aI17440943
aI17569297
aI17932346
aI17855696
aI17960397
aI17934201
aI18079052
aI18067661
aI18086783
aI18086759
as(S'il18'
p6938
g415
tp6939
(lp6940
I17851835
aI18225563
as(S'mir133b'
p6941
S"parkinson's disease"
p6942
tp6943
(lp6944
I20468068
as(S'itpa'
p6945
S'anemia'
p6946
tp6947
(lp6948
I20637204
aI21274861
aI21246582
aI20637204
as(S'faslg'
p6949
S'longevity'
p6950
tp6951
(lp6952
I11965496
aI11965496
as(S'mbp'
p6953
S'chronic progressive multiple sclerosis.'
p6954
tp6955
(lp6956
I7515903
as(S'abcg2'
p6957
g723
tp6958
(lp6959
I18775442
aI18710444
aI19107936
aI19930591
aI20035425
aI18221820
aI17925548
as(S'f2'
p6960
S'neoplasms'
p6961
tp6962
(lp6963
I12747590
aI17106650
aI18192106
aI18246466
as(S'gstt1'
p6964
S'hepatocellular carcinoma'
p6965
tp6966
(lp6967
I11440964
as(S'il2rb'
p6968
g217
tp6969
(lp6970
I20179739
as(S'nnmt'
p6971
S'hyperhomocysteinemia'
p6972
tp6973
(lp6974
I18427977
as(S'kif6'
p6975
S'atherosclerosis'
p6976
tp6977
(lp6978
I20403483
as(S'il1rn'
p6979
S'cardiovascular'
p6980
tp6981
(lp6982
I12578333
as(S'ldlr'
p6983
S'cholesterol'
p6984
tp6985
(lp6986
I9747026
as(S'hla-drb1'
p6987
S'carcinoma, papillary'
p6988
tp6989
(lp6990
I20164547
as(S'luc7l3'
p6991
g3025
tp6992
(lp6993
I20677014
as(S'c2'
p6994
g217
tp6995
(lp6996
I18069935
aI18174230
as(S'ctla4'
p6997
g1658
tp6998
(lp6999
I14720259
aI11096256
aI11447385
aI12114354
aI11447385
aI11096256
aI11447385
aI11447385
aI16926542
aI17469155
aI19895365
aI19824886
aI20016193
as(S'cyp3a'
p7000
S'midazolam clearance'
p7001
tp7002
(lp7003
I15179407
as(S'cckar'
p7004
S'anorexia nervosa'
p7005
tp7006
(lp7007
I16362631
as(S'ttr'
p7008
S'mixed polyneuropathy'
p7009
tp7010
(lp7011
I14640031
as(S'oprm1'
p7012
S'body mass smoking behavior'
p7013
tp7014
(lp7015
I17224915
as(S'rarb'
p7016
g193
tp7017
(lp7018
I15635645
as(S'pnpla3'
p7019
S'diabetes mellitus, type 2'
p7020
tp7021
(lp7022
I19524579
as(S'aak1'
p7023
g3728
tp7024
(lp7025
I19772629
as(S'lepr'
p7026
S'diabetes mellitus'
p7027
tp7028
(lp7029
I15189365
as(S'tgfb1'
p7030
S'immune system diseases'
p7031
tp7032
(lp7033
I18321307
as(S'odc1'
p7034
S'gastric disease'
p7035
tp7036
(lp7037
I15734972
as(S'mgmt'
p7038
S'adenocarcinoma'
p7039
tp7040
(lp7041
I18386788
aI20817763
as(S'als2'
p7042
S'infantile-onset ascending hereditary spastic paralysis'
p7043
tp7044
(lp7045
I12145748
as(S'hla-drb1'
p7046
S'echinococcosis, hepatic'
p7047
tp7048
(lp7049
I14570623
as(S'masp2'
p7050
S'cytomegalovirus infection, post allograft kidney transplant'
p7051
tp7052
(lp7053
I17565323
as(S'hla-dqb1'
p7054
S'stomach cancer'
p7055
tp7056
(lp7057
I15691311
aI15259342
aI11985790
as(S'cyp2c9'
p7058
S'depressive disorder, major'
p7059
tp7060
(lp7061
I14583800
as(S'il1b'
p7062
S'disc disease, intervertebral'
p7063
tp7064
(lp7065
I15733644
as(S'gstm1'
p7066
S'benzene toxicity'
p7067
tp7068
(lp7069
I12460800
aI15952134
aI15748501
aI17119198
aI17178637
as(S'lbp'
p7070
S'myocardial infarct'
p7071
tp7072
(lp7073
I12521224
as(S'nqo1'
p7074
g193
tp7075
(lp7076
I17644186
as(S'cd226'
p7077
g2995
tp7078
(lp7079
I20399620
as(S'dusp6'
p7080
S'longevity'
p7081
tp7082
(lp7083
I20800603
as(S'cdkn2a'
p7084
S'carcinoma, basal cell'
p7085
tp7086
(lp7087
I19578363
as(S'ms4a2'
p7088
S'airway hyperresponsiveness atopy'
p7089
tp7090
(lp7091
I17430357
as(S'aak1'
p7092
S"parkinson's disease (age of onset)"
p7093
tp7094
(lp7095
I19772629
as(S'cry2'
p7096
g193
tp7097
(lp7098
I16528748
aI20072116
aI18228528
as(S'acad8'
p7099
g10
tp7100
(lp7101
I17387528
as(S'cyp1a2'
p7102
S'liver cancer'
p7103
tp7104
(lp7105
I16048566
aI12569554
aI16495781
aI17363580
as(S's100b'
p7106
S'schizophrenia'
p7107
tp7108
(lp7109
I15670788
as(S'cyp3a5'
p7110
S'tacrolimus pharmcokinetics'
p7111
tp7112
(lp7113
I17049058
as(S'kir2ds3'
p7114
g524
tp7115
(lp7116
I18074414
as(S'pgr'
p7117
S'cholesterol, ldl'
p7118
tp7119
(lp7120
I15381922
as(S'notch1'
p7121
g579
tp7122
(lp7123
I16707600
aI19245433
aI19109228
aI19340001
aI19794083
aI20683149
aI20861909
as(S'cr1'
p7124
S'alzheimer disease'
p7125
tp7126
(lp7127
I21460841
as(S'tp53'
p7128
S'pancreas adenocarcinomas'
p7129
tp7130
(lp7131
I19548527
as(S'cyp1a1'
p7132
S'carcinoma, papillary'
p7133
tp7134
(lp7135
I18601742
aI21086258
as(S'cyp19a1'
p7136
S'prostate carcinoma'
p7137
tp7138
(lp7139
I14508827
as(S'ace'
p7140
S'disorder of the optic nerve'
p7141
tp7142
(lp7143
I15864617
as(S'igf2r'
p7144
S'height'
p7145
tp7146
(lp7147
I16172012
as(S'msh2'
p7148
g579
tp7149
(lp7150
I12912950
aI11890986
aI12688322
as(S'tnf'
p7151
S'pre-term delivery infant mortality and malaria morbidity'
p7152
tp7153
(lp7154
I11668577
as(S'gstm1'
p7155
S'arthritis, rheumatoid'
p7156
tp7157
(lp7158
I18706519
aI19473562
aI19842992
aI20597111
aI20674822
aI11505223
aI14714091
aI15940757
aI16580705
aI16870093
aI16887863
aI17431481
aI18241825
as(S'fads2'
p7159
S'cholesterol'
p7160
tp7161
(lp7162
I19060911
as(S'ttr'
p7163
g2833
tp7164
(lp7165
I16011990
as(S'gp2'
p7166
g3807
tp7167
(lp7168
I20335779
as(S'lilrb4'
p7169
S'atopy'
p7170
tp7171
(lp7172
I10940079
aI10940079
aI10940079
aI10940079
as(S'slc2a4'
p7173
S'diabetes, type 2'
p7174
tp7175
(lp7176
I8039605
aI1348023
aI7983800
aI1978828
aI8904924
aI1348045
aI8039605
aI1756912
as(S'il2'
p7177
g2555
tp7178
(lp7179
I20222161
as(S'drd2'
p7180
S'musical aptitude'
p7181
tp7182
(lp7183
I19461995
as(S'hla-dpb1'
p7184
S'infection, post allograft'
p7185
tp7186
(lp7187
I12956878
as(S'adra2c'
p7188
S'schizophrenia'
p7189
tp7190
(lp7191
I11317218
aI11317218
aI15683753
aI18835330
as(S'gen1'
p7192
g2282
tp7193
(lp7194
I20379614
as(S'itpa'
p7195
S'rheumatoid arthritis'
p7196
tp7197
(lp7198
I17530705
aI16947783
aI19129747
as(S'fcgr3a'
p7199
S'rheumatoid arthritis'
p7200
tp7201
(lp7202
I12486608
aI11037893
aI16277670
aI15457442
aI18372357
aI19700393
aI20508037
aI17922423
as(S'rage'
p7203
g2294
tp7204
(lp7205
I11811511
as(S'cd89'
p7206
S'ignephropathy'
p7207
tp7208
(lp7209
I11776381
as(S'prkaa2'
p7210
g10
tp7211
(lp7212
I19574280
as(S'rec8'
p7213
g5789
tp7214
(lp7215
I18570052
as(S'matn3'
p7216
g42
tp7217
(lp7218
I16396979
as(S'kitlg'
p7219
g973
tp7220
(lp7221
I19416273
as(S'psrc1'
p7222
S'cholesterol, ldl'
p7223
tp7224
(lp7225
I18179892
as(S'hla-dra'
p7226
S'ulcerative colitis'
p7227
tp7228
(lp7229
I19861958
as(S'col1a2'
p7230
S'fractures'
p7231
tp7232
(lp7233
I12813128
as(S'il6'
p7234
S'brain infarction'
p7235
tp7236
(lp7237
I18436879
aI19147624
aI15466088
aI16208404
as(S'cyp1b1'
p7238
S'endometrial cancer'
p7239
tp7240
(lp7241
I15734958
aI14656940
aI15285606
aI15342454
aI12873984
aI16730930
aI16985250
as(S'hla'
p7242
g2995
tp7243
(lp7244
I15908298
aI15620466
aI10599883
aI8504697
aI6984837
as(S'agtr1'
p7245
S'coronary atherosclerosis.'
p7246
tp7247
(lp7248
I12975417
as(S'nr3c1'
p7249
S'guillain-barre syndrome'
p7250
tp7251
(lp7252
I19691529
as(S'add1'
p7253
S'nephropathy'
p7254
tp7255
(lp7256
I12885793
as(S'slc6a4'
p7257
S'financial risk taking'
p7258
tp7259
(lp7260
I19209222
as(S'nat2'
p7261
g711
tp7262
(lp7263
I19643819
aI20935060
aI11034589
aI11911601
aI12818290
aI12877350
aI17479278
as(S'jak2'
p7264
S'thromboembolism, venous'
p7265
tp7266
(lp7267
I17307838
as(S'psmd9'
p7268
S'diabetes, type 2'
p7269
tp7270
(lp7271
I17516568
as(S'esr1'
p7272
S'height'
p7273
tp7274
(lp7275
I14715865
as(S'vegf'
p7276
g1748
tp7277
(lp7278
I20303008
as(S'il28b'
p7279
S'hepatitis c'
p7280
tp7281
(lp7282
I19759533
aI20389235
aI20637200
aI20621700
aI20803561
aI21048934
aI21257738
aI19684573
aI19749757
aI19749758
aI20060832
as(S'gsta4'
p7283
S'parkinsons disease'
p7284
tp7285
(lp7286
I16054170
as(S'il8'
p7287
S'lymphadenitis'
p7288
tp7289
(lp7290
I20399512
as(S'mtrr'
p7291
S'head and neck cancer'
p7292
tp7293
(lp7294
I17596206
as(S'pparg'
p7295
S'hiv infections'
p7296
tp7297
(lp7298
I19534662
as(S'drd2'
p7299
S'elevated blood pressure and personality disorders'
p7300
tp7301
(lp7302
I11494094
as(S'nr1i2'
p7303
S'hepatic cyp3a4 expression'
p7304
tp7305
(lp7306
I19934400
as(S'cfh'
p7307
g121
tp7308
(lp7309
I20588308
as(S'slc6a4'
p7310
g3334
tp7311
(lp7312
I19059448
aI11121166
aI18315446
as(S'actn3'
p7313
S'muscle testing'
p7314
tp7315
(lp7316
I15718405
aI15817725
as(S'ccr2'
p7317
S'pneumocystis carinii pneumonia'
p7318
tp7319
(lp7320
I12010355
as(S'matp'
p7321
S'tanning'
p7322
tp7323
(lp7324
I19340012
as(S'hsd3b2'
p7325
S'congenital adrenal hyperplasia'
p7326
tp7327
(lp7328
I11287026
aI15585552
as(S'ace'
p7329
S'affective disorder'
p7330
tp7331
(lp7332
I8931914
as(S'tp53'
p7333
S'adenocarcinoma, clear cell'
p7334
tp7335
(lp7336
I19097418
aI20169661
aI21070477
aI16174251
aI16459017
as(S'xpc'
p7337
S'cell transformation, neoplastic'
p7338
tp7339
(lp7340
I18285822
as(S'tnf'
p7341
S'limbal stem cell graft'
p7342
tp7343
(lp7344
I15896304
as(S'rmi1'
p7345
S'neoplasms'
p7346
tp7347
(lp7348
I19432957
as(S'cyp3a4'
p7349
g217
tp7350
(lp7351
I18981009
aI19225447
aI19258929
aI19865079
aI20354687
aI17766366
as(S'ppp1r1b'
p7352
S'schizophrenia'
p7353
tp7354
(lp7355
I17618027
aI16750903
aI20483474
aI18055181
as(S'nos3'
p7356
S'acetylcholine responsiveness'
p7357
tp7358
(lp7359
I11434508
as(S'esr2'
p7360
S'left ventricular mass'
p7361
tp7362
(lp7363
I16280269
as(S'f5'
p7364
S'acute traumatic spinal cord injury'
p7365
tp7366
(lp7367
I19853891
as(S'hla-drb1'
p7368
S'diffuse panbonchiolitis'
p7369
tp7370
(lp7371
I18846964
as(S'abcb1'
p7372
S'lung transplant complications'
p7373
tp7374
(lp7375
I14747421
as(S'slc11a1'
p7376
g169
tp7377
(lp7378
I15877293
aI12136340
aI12136340
aI12136340
aI11507694
as(S'usp9x'
p7379
g1083
tp7380
(lp7381
I19508998
as(S'irf4'
p7382
S'tanning phenotype'
p7383
tp7384
(lp7385
I19340012
as(S'cyp2a6'
p7386
S'efavirenz mid-dose concentration'
p7387
tp7388
(lp7389
I19779319
as(S'tnf'
p7390
S'silicosis tuberculosis'
p7391
tp7392
(lp7393
I17223386
as(S'drd2'
p7394
S'cirrhosis'
p7395
tp7396
(lp7397
I11236836
as(S'pomc'
p7398
S'type 2 diabetes'
p7399
tp7400
(lp7401
I20628086
as(S'tnfsf15'
p7402
g5654
tp7403
(lp7404
I20018961
aI20018961
as(S'cyp1a1'
p7405
S'neoplasms, germ cell and embryonal'
p7406
tp7407
(lp7408
I18415690
as(S'tra@'
p7409
S'cholesterol, ldl'
p7410
tp7411
(lp7412
I17903299
as(S'il19'
p7413
g221
tp7414
(lp7415
I20806065
as(S'tp53'
p7416
g2058
tp7417
(lp7418
I15060108
aI19291875
aI19471604
aI19578553
aI20357201
aI12084746
aI12368717
aI16140998
as(S'calu'
p7419
g821
tp7420
(lp7421
I20673165
as(S'ppara'
p7422
S'body mass'
p7423
tp7424
(lp7425
I16652134
as(S'muc5ac'
p7426
g1658
tp7427
(lp7428
I11062147
aI11062147
as(S'cyp2d6'
p7429
S'9-hydroxyrisperidone and risperidone'
p7430
tp7431
(lp7432
I18708991
as(S'tyms'
p7433
S'head and neck cancer'
p7434
tp7435
(lp7436
I15585623
aI16617381
aI17596206
as(S'habp2'
p7437
S'thromboembolism, venous'
p7438
tp7439
(lp7440
I15486068
as(S'sult1a2'
p7441
S'kidney cancer'
p7442
tp7443
(lp7444
I12469224
as(S'card15'
p7445
g10
tp7446
(lp7447
I20412372
as(S'tnfrsf1a'
p7448
g7156
tp7449
(lp7450
I18807256
as(S'faah'
p7451
S'obesity, morbid'
p7452
tp7453
(lp7454
I20189896
as(S'pon1'
p7455
S'myocardial infarct stroke, ischemic'
p7456
tp7457
(lp7458
I16472799
as(S'ncoa3'
p7459
S'quantitative calcaneal ultrasound'
p7460
tp7461
(lp7462
I11092404
as(S'mthfr'
p7463
S'cleft lip with or without cleft palate'
p7464
tp7465
(lp7466
I12143122
as(S'aqp5'
p7467
S'coronary artery disease'
p7468
tp7469
(lp7470
I18846354
as(S'pyy'
p7471
S'diabetes, type 2'
p7472
tp7473
(lp7474
I15983231
aI17325259
as(S'nos3'
p7475
S'coronary spasm.'
p7476
tp7477
(lp7478
I10359729
as(S'hla-dqa1'
p7479
S'rubella vaccination'
p7480
tp7481
(lp7482
I19200845
as(S'gclc'
p7483
S'body burden of methylmercury'
p7484
tp7485
(lp7486
I18560528
as(S'fas'
p7487
g738
tp7488
(lp7489
I19542541
aI19716115
as(S'hla-a'
p7490
g5296
tp7491
(lp7492
I18544086
aI18976440
aI19000143
aI19159415
aI19539218
aI19654407
aI19924143
aI17445159
aI20335219
aI20536911
aI12437654
aI14871250
aI17726164
aI18093280
aI18332066
as(S'cyp2c19'
p7493
S'ovarian toxicity'
p7494
tp7495
(lp7496
I17407229
as(S'cyp3a5'
p7497
S'methadone levels'
p7498
tp7499
(lp7500
I17178267
as(S'adra2a'
p7501
S'glucose'
p7502
tp7503
(lp7504
I11886485
as(S'tuba8'
p7505
g193
tp7506
(lp7507
I16380905
as(S'ccl22'
p7508
g213
tp7509
(lp7510
I19298002
as(S'folh1'
p7511
S'folate homocysteine'
p7512
tp7513
(lp7514
I16522921
as(S'grik3'
p7515
S'depressive disorder, major'
p7516
tp7517
(lp7518
I16958029
as(S'grin2a'
p7519
S'smoking'
p7520
tp7521
(lp7522
I19268276
as(S'tlr6'
p7523
S"antibody formation crohn's disease ulcerative colitis"
p7524
tp7525
(lp7526
I17595233
as(S'crp'
p7527
S'inflammatory markers'
p7528
tp7529
(lp7530
I17113059
as(S'hla-a'
p7531
g455
tp7532
(lp7533
I19728932
aI17989341
as(S'prnp'
p7534
S'prion susceptibility'
p7535
tp7536
(lp7537
I12815603
as(S'myh3'
p7538
S'arthrogryposis'
p7539
tp7540
(lp7541
I19142688
as(S'sod2'
p7542
S'catalase activity chronic obstructive pulmonary disease/copd'
p7543
tp7544
(lp7545
I17567676
as(S'mlh3'
p7546
S'mammalian microsatellite instability'
p7547
tp7548
(lp7549
I10615123
as(S'mpo'
p7550
S'cognitive decline'
p7551
tp7552
(lp7553
I16641309
as(S'cd36'
p7554
S'cholesterol, hdl'
p7555
tp7556
(lp7557
I11718687
as(S'cyp1a2'
p7558
g10
tp7559
(lp7560
I19414633
as(S'kras'
p7561
S'colorectal carcinoma'
p7562
tp7563
(lp7564
I14506738
as(S'tlr4'
p7565
S'boutonneuse fever'
p7566
tp7567
(lp7568
I16388712
as(S'cetp'
p7569
S'apolipoproteins'
p7570
tp7571
(lp7572
I14687732
as(S'hba1'
p7573
S'rheumatoid arthritis'
p7574
tp7575
(lp7576
I12667291
as(S'gstm1'
p7577
g742
tp7578
(lp7579
I18398695
aI18443805
aI18572765
aI19247656
aI19407363
aI19610060
aI20331623
aI20377137
aI20843117
aI20878561
aI12029283
aI15596296
aI16270381
aI16334806
aI16517545
aI16707601
aI17996038
aI18162130
as(S'hla-drb1'
p7580
g723
tp7581
(lp7582
I11027344
aI12656131
aI11027344
aI15935893
aI16799707
aI17016821
aI18338763
aI19196481
aI19246116
aI20449807
aI11349219
aI15323271
aI17661908
as(S'cdk5r1'
p7583
g10
tp7584
(lp7585
I19154537
as(S'crp'
p7586
S'arthritis lymphopenia nephritis, lupus'
p7587
tp7588
(lp7589
I17596285
as(S'ephx1'
p7590
g579
tp7591
(lp7592
I21228414
as(S'mcph1'
p7593
S'micrencephaly'
p7594
tp7595
(lp7596
I20080800
aI18204051
as(S'tlr4'
p7597
g1791
tp7598
(lp7599
I19922963
as(S'tp53'
p7600
S'decreased chemosensitivity'
p7601
tp7602
(lp7603
I8682593
as(S'vegfa'
p7604
S'stomach cancer'
p7605
tp7606
(lp7607
I17111394
aI17426061
as(S'ptpn22'
p7608
S'rheumatoid arthritis'
p7609
tp7610
(lp7611
I16380915
aI15883854
aI16385499
aI16175503
aI16175503
aI15875058
aI15934099
aI16391555
aI16163373
aI16277672
aI16107870
aI15641066
aI15674368
aI15759012
aI15208781
aI15934099
aI15934099
aI15934099
aI15986374
aI15934099
aI16490755
aI16507117
aI16635271
aI16690758
aI16764945
aI17135225
aI17159887
aI17341507
aI17472988
aI17553139
aI17436241
aI18466483
aI18466472
aI18466461
aI18466535
aI18466531
aI18466515
aI18489434
aI18804983
aI19210878
aI19357851
aI19419839
aI19470526
aI19445664
aI19648126
aI17804836
aI20403149
aI21279993
as(S'lpa'
p7612
S'myocardial infarct'
p7613
tp7614
(lp7615
I15258620
aI12578871
as(S'abcb11'
p7616
S'cirrhosis, biliary primary'
p7617
tp7618
(lp7619
I14999697
as(S'grm6'
p7620
S'alcoholism'
p7621
tp7622
(lp7623
I20560679
as(S'il6'
p7624
S'fibrinogen myocardial infarct'
p7625
tp7626
(lp7627
I16525568
as(S'map3k7ip2'
p7628
S'rheumatoid arthritis'
p7629
tp7630
(lp7631
I16755651
as(S'cpb2'
p7632
S'blood pressure'
p7633
tp7634
(lp7635
I11903334
as(g6115
S'height'
p7636
tp7637
(lp7638
I15294324
aI11932319
as(S'arhgef11'
p7639
g821
tp7640
(lp7641
I20613766
as(S'cyba'
p7642
S'candidiasis'
p7643
tp7644
(lp7645
I16110781
as(S'il2'
p7646
S'leukemia, myelomonocytic, chronic'
p7647
tp7648
(lp7649
I20626741
as(S'cyp3a4'
p7650
S'nephropathy'
p7651
tp7652
(lp7653
I15708542
as(S'gpr126'
p7654
S'lung diseases'
p7655
tp7656
(lp7657
I20010835
as(S'ercc4'
p7658
S'cytogenetic studies'
p7659
tp7660
(lp7661
I17078101
as(S'kalrn'
p7662
S'adult adhd'
p7663
tp7664
(lp7665
I18839057
as(S'apoc3'
p7666
g723
tp7667
(lp7668
I11341749
as(S'tap2'
p7669
g169
tp7670
(lp7671
I15336779
aI12786999
aI12507827
aI11916171
aI9226129
aI9226129
aI8157258
aI8157258
aI11916171
aI12507827
aI7911550
aI17192492
aI17491658
as(S'abcb1'
p7672
S'nasopharyngeal cancer'
p7673
tp7674
(lp7675
I17545060
as(S'pax3'
p7676
g2647
tp7677
(lp7678
I19320733
as(S'gstp1'
p7679
g42
tp7680
(lp7681
I18447907
aI18635758
aI19635899
aI20840864
aI15473001
aI15934438
aI17195228
as(S'sth'
p7682
S'fragile x syndrome'
p7683
tp7684
(lp7685
I18300012
as(S'gck'
p7686
S'diabetes, post-renal transplant'
p7687
tp7688
(lp7689
I11106831
as(S'nos2a'
p7690
S'brain hemorrhage'
p7691
tp7692
(lp7693
I16574921
as(S'kit'
p7694
S'bone density'
p7695
tp7696
(lp7697
I17487541
as(S'gars'
p7698
S'charcot-marie-tooth disease'
p7699
tp7700
(lp7701
I19329989
as(S'hnf1a'
p7702
S'ldl cholesterol'
p7703
tp7704
(lp7705
I19060906
as(S'ren'
p7706
S'hypertension'
p7707
tp7708
(lp7709
I14530292
aI12544508
aI12394950
aI11224002
aI16138564
aI11409653
aI12862204
aI1685742
aI10665661
aI9237498
aI7903395
aI12695419
aI16615274
aI17546276
aI2892488
aI19536175
aI19126660
aI18856058
aI20160196
aI20577119
aI20537141
aI20662730
aI20925572
aI11191642
aI18192836
aI18188989
aI18260994
as(S'pros1'
p7710
S'free protein s (type iia) deficiency'
p7711
tp7712
(lp7713
I7579448
as(S'chek2'
p7714
S'bladder cancer'
p7715
tp7716
(lp7717
I17918154
as(S'hla-dpb1'
p7718
S'malaria, plasmodium falciparum'
p7719
tp7720
(lp7721
I11285127
as(S'ndufv2'
p7722
g193
tp7723
(lp7724
I15450783
aI12815743
aI19194776
aI18199248
as(S'ccl2'
p7725
S'nephropathy, iga'
p7726
tp7727
(lp7728
I14767014
aI16362156
as(S'lta4h'
p7729
g1658
tp7730
(lp7731
I16293801
aI19130089
aI18547289
aI19214143
aI20067482
aI20810156
as(S'igfbp5'
p7732
g169
tp7733
(lp7734
I9166681
as(S'uts2'
p7735
S'glucose tolerance insulin'
p7736
tp7737
(lp7738
I16597476
as(S'rage'
p7739
S'type 2 diabetes'
p7740
tp7741
(lp7742
I20410680
aI17924846
as(S'muc3a'
p7743
S'ulcerative colitis'
p7744
tp7745
(lp7746
I9931338
as(S'cnp'
p7747
S'schizophrenia'
p7748
tp7749
(lp7750
I16389193
aI16891421
aI17010574
aI17306456
aI18496213
aI19348671
as(S'hnmt'
p7751
S'alcoholism'
p7752
tp7753
(lp7754
I15770103
aI16950574
as(S'idh2'
p7755
g2719
tp7756
(lp7757
I20538800
aI20946881
as(S'nos1'
p7758
S'cluster headache'
p7759
tp7760
(lp7761
I12421162
as(S'tph2'
p7762
S'emotion regulation'
p7763
tp7764
(lp7765
I16801378
as(S'hla-dqa1'
p7766
S'lung function'
p7767
tp7768
(lp7769
I12189808
as(S'esr2'
p7770
S'rectal cancer'
p7771
tp7772
(lp7773
I16365013
as(S'gas6'
p7774
S'stroke, atherothrombotic'
p7775
tp7776
(lp7777
I15108283
as(S'il8rb'
p7778
g655
tp7779
(lp7780
I17672867
as(S'grm8'
p7781
S'seizures, alcohol withdrawal-induced'
p7782
tp7783
(lp7784
I11912074
as(S'hcrtr1'
p7785
S'polydipsia'
p7786
tp7787
(lp7788
I15978554
as(S'gstm1'
p7789
S'homocysteine'
p7790
tp7791
(lp7792
I14716779
as(S'gnb3'
p7793
g90
tp7794
(lp7795
I11230982
aI19242491
aI20539277
aI12694337
aI15212839
as(S'nos3'
p7796
S'body mass hypertension'
p7797
tp7798
(lp7799
I17444275
as(S'kras'
p7800
g2011
tp7801
(lp7802
I19289622
aI19358278
aI19527492
aI20542658
aI20678218
aI18172263
as(S'hpcx'
p7803
g30
tp7804
(lp7805
I18350320
aI20564318
as(S'il18'
p7806
S'chronic hepatitis c'
p7807
tp7808
(lp7809
I19455410
as(S'glis3'
p7810
S'glucose transporter type 2'
p7811
tp7812
(lp7813
I20081858
as(S'egf'
p7814
S'cutaneous malignant melanoma.'
p7815
tp7816
(lp7817
I14520709
as(S'myl2'
p7818
g6405
tp7819
(lp7820
I20359594
as(S'gstp1'
p7821
S'cirrhosis'
p7822
tp7823
(lp7824
I16157826
as(S'ifna5'
p7825
g217
tp7826
(lp7827
I19000144
as(S'np'
p7828
S"alzheimer's disease cognitive function"
p7829
tp7830
(lp7831
I17221831
as(S'nr1i3'
p7832
g5175
tp7833
(lp7834
I18294295
as(S'nfkb1'
p7835
g363
tp7836
(lp7837
I16465659
as(S'sftpb'
p7838
g482
tp7839
(lp7840
I18550614
as(S'sod2'
p7841
S'hearing loss/deafness'
p7842
tp7843
(lp7844
I15345661
as(S'gstp1'
p7845
S'liver disease, alcoholic'
p7846
tp7847
(lp7848
I15525789
as(S'grn'
p7849
g10
tp7850
(lp7851
I18565828
aI19016491
aI18752597
aI19625741
as(S'esr1'
p7852
S'uterine leiomyoma'
p7853
tp7854
(lp7855
I16595228
as(S'nos3'
p7856
S'cardiomegaly'
p7857
tp7858
(lp7859
I19051693
as(S'apex1'
p7860
g1075
tp7861
(lp7862
I15887293
as(S'gsr'
p7863
g723
tp7864
(lp7865
I16424062
aI16868544
as(S'amy2a'
p7866
S"parkinson's disease"
p7867
tp7868
(lp7869
I15648851
as(S'hspa1l'
p7870
g5296
tp7871
(lp7872
I19758266
as(S'htr3a'
p7873
S'major depressive disorder'
p7874
tp7875
(lp7876
I18982004
as(S'ifng'
p7877
g3960
tp7878
(lp7879
I12914676
aI17846855
aI18287876
as(S'mtrr'
p7880
S'exfoliation syndrome'
p7881
tp7882
(lp7883
I19112534
as(S'vwf'
p7884
S'hepatopulmonary syndrome'
p7885
tp7886
(lp7887
I20346360
as(S'kcne1l'
p7888
S'ekg, abnormal'
p7889
tp7890
(lp7891
I15193977
as(S'apoe'
p7892
S'cerebral infarct, atherothrombotic'
p7893
tp7894
(lp7895
I17016617
as(S'ran'
p7896
g723
tp7897
(lp7898
I20721975
as(S'tgfb1'
p7899
g113
tp7900
(lp7901
I16540751
aI16567828
aI18693126
aI19106168
aI20136356
aI12176809
aI16287542
as(S'hsp90b1'
p7902
S'ischemic neuronal cell death'
p7903
tp7904
(lp7905
I12925009
as(S'pax4'
p7906
g169
tp7907
(lp7908
I16123375
aI11723072
aI15509590
aI15509590
aI15834548
aI12604352
aI11723072
aI10230653
aI16423628
aI16911636
aI17426099
aI18617287
as(S'ube3a'
p7909
g407
tp7910
(lp7911
I17903305
as(S'sdhd'
p7912
S'spermatogenesis'
p7913
tp7914
(lp7915
I17298551
as(S'mthfr'
p7916
S'hepatolenticular degeneration'
p7917
tp7918
(lp7919
I19005482
aI19016697
aI20670164
aI17488658
aI18214047
as(S'slc25a14'
p7920
S'schizophrenia'
p7921
tp7922
(lp7923
I17066476
as(S'ace'
p7924
g583
tp7925
(lp7926
I19067809
aI19408837
aI15944101
as(S'txnrd2'
p7927
S'acquired immunodeficiency syndrome'
p7928
tp7929
(lp7930
I20877624
as(S'il1a'
p7931
S'migraine'
p7932
tp7933
(lp7934
I12047332
as(S'igf2'
p7935
S'longevity'
p7936
tp7937
(lp7938
I11672987
aI15621215
aI19367319
as(S'f12'
p7939
g821
tp7940
(lp7941
I19422815
aI20814302
as(S'apoa1'
p7942
S'lipid levels'
p7943
tp7944
(lp7945
I19802338
as(S'smad2'
p7946
g723
tp7947
(lp7948
I12202987
aI18949743
as(S'ace'
p7949
S'peptic ulcer stomach cancer'
p7950
tp7951
(lp7952
I17035401
as(S'gabra6'
p7953
S'anxiety disorder'
p7954
tp7955
(lp7956
I15197399
as(S'adcyap1'
p7957
g217
tp7958
(lp7959
I17175032
as(S'ctla4'
p7960
S'carcinoma, basal cell'
p7961
tp7962
(lp7963
I19622768
as(S'il4'
p7964
S'il-4 production'
p7965
tp7966
(lp7967
I11960309
as(S'akr1c3'
p7968
S'bladder cancer'
p7969
tp7970
(lp7971
I18632753
as(S'tlr4'
p7972
g169
tp7973
(lp7974
I15696495
aI15632890
aI17130564
aI18728522
aI19135114
aI19148143
aI19395279
as(S'tnf'
p7975
S'clonorchiasis'
p7976
tp7977
(lp7978
I19488421
as(S'ppard'
p7979
g315
tp7980
(lp7981
I16053787
aI18657264
aI19818126
as(S'tlr10'
p7982
g30
tp7983
(lp7984
I15812078
aI18752252
aI17932345
as(S'slc6a3'
p7985
S'appetite suppression'
p7986
tp7987
(lp7988
I17314918
as(S'gabrb2'
p7989
S'heroin abuse'
p7990
tp7991
(lp7992
I17440936
as(S'gstm2'
p7993
S'hypertension'
p7994
tp7995
(lp7996
I18551009
as(S'cyp3a4'
p7997
S'tardive dyskinesia'
p7998
tp7999
(lp8000
I15820320
as(S'vdr'
p8001
S'quantitative calcaneal ultrasound'
p8002
tp8003
(lp8004
I14725686
as(S'gpld1'
p8005
S'liver enzymes'
p8006
tp8007
(lp8008
I18940312
as(S'ar'
p8009
S'prostate-specific antigen levels'
p8010
tp8011
(lp8012
I12101115
as(S'f2'
p8013
S'cerebral venous thrombosis'
p8014
tp8015
(lp8016
I16155788
aI17537363
as(S'ugt1a7'
p8017
S'mycophenolate mofetil'
p8018
tp8019
(lp8020
I18597651
as(S'cma1'
p8021
S'dermatitis and eczema'
p8022
tp8023
(lp8024
I15248847
aI16134991
as(S'serpina1'
p8025
S'nasal polyps'
p8026
tp8027
(lp8028
I20109307
as(S'ace'
p8029
S'nephropathy, diabetic'
p8030
tp8031
(lp8032
I11776100
aI16231503
aI12147786
aI16672053
as(S'hand2'
p8033
g730
tp8034
(lp8035
I20819618
as(S'srebf1'
p8036
g315
tp8037
(lp8038
I19727213
aI19876004
as(S'gnb3'
p8039
S'coronary artery disease'
p8040
tp8041
(lp8042
I12618278
aI18551043
aI21119571
aI11116112
aI16713434
aI16908025
aI17972053
aI17958314
as(S'rnase3'
p8043
S'liver diseases, parasitic'
p8044
tp8045
(lp8046
I17507019
as(S'cbs'
p8047
S'methotrexate toxicity'
p8048
tp8049
(lp8050
I16013960
as(S'cyp2d6'
p8051
g291
tp8052
(lp8053
I18979093
aI19164093
aI19290787
as(S'crp'
p8054
S'syndrome'
p8055
tp8056
(lp8057
I20538960
as(S'nos2'
p8058
g30
tp8059
(lp8060
I19168583
as(S'comt'
p8061
S'multisomatoform disorder'
p8062
tp8063
(lp8064
I20373853
as(S'bcl2'
p8065
S'lupus'
p8066
tp8067
(lp8068
I12133517
aI11196685
aI12133494
as(S'mcoln1'
p8069
S'mucolipidosis'
p8070
tp8071
(lp8072
I11317355
aI11845410
as(g5808
S'pregnancy loss, recurrent'
p8073
tp8074
(lp8075
I12202987
as(S'tgfbr1'
p8076
g723
tp8077
(lp8078
I12202987
aI15860866
aI15833881
aI15385056
aI15505640
aI16428477
aI17507611
aI17607123
aI17575241
aI18778720
aI19390964
aI19538729
aI19401691
aI19690145
aI19930569
aI19998449
aI17848956
aI17848193
as.